(dp0
Vchinese
p1
c__builtin__
set
p2
((lp3
Vchina tourism
p4
atp5
Rp6
sVdatum
p7
g2
((lp8
Vat&t
p9
aVcisco
p10
aVcomcast
p11
aVvirgin mobile
p12
aVt-mobile
p13
atp14
Rp15
sVfedex
p16
g2
((lp17
Vfedex
p18
atp19
Rp20
sVmilk
p21
g2
((lp22
Vapplebees
p23
atp24
Rp25
sVturkish
p26
g2
((lp27
Vturkish airlines
p28
atp29
Rp30
sVtv
p31
g2
((lp32
Vsamsung
p33
atp34
Rp35
sVsend
p36
g2
((lp37
Vfedex
p38
aVdhl
p39
aVups
p40
aVusps
p41
atp42
Rp43
sVprogram
p44
g2
((lp45
Vibm
p46
atp47
Rp48
sVinclude
p49
g2
((lp50
Vcisco
p51
atp52
Rp53
sVsmartphone
p54
g2
((lp55
Vt-mobile
p56
aVapple
p57
aVmicrosoft
p58
aVvirgin mobile
p59
aVsamsung
p60
atp61
Rp62
sVprepaid
p63
g2
((lp64
Vat&t
p65
atp66
Rp67
sVdutch
p68
g2
((lp69
Vroyal dutch shell
p70
aVmcdonalds
p71
atp72
Rp73
sVfacebook
p74
g2
((lp75
Vfacebook
p76
atp77
Rp78
sVticket
p79
g2
((lp80
Vlufthansa
p81
aVmalaysia airlines
p82
aVemirates
p83
aVturkish airlines
p84
aVunited airlines
p85
atp86
Rp87
sVroom
p88
g2
((lp89
Vmarriott
p90
aVhilton
p91
atp92
Rp93
sVcisco
p94
g2
((lp95
Vcisco
p96
atp97
Rp98
sVsolution
p99
g2
((lp100
Vibm
p101
atp102
Rp103
sVsmall
p104
g2
((lp105
Vcostco
p106
atp107
Rp108
sVups
p109
g2
((lp110
Vups
p111
atp112
Rp113
sVclothes
p114
g2
((lp115
Vold navy
p116
aVsears
p117
atp118
Rp119
sVlogistics
p120
g2
((lp121
Vfedex
p122
aVdhl
p123
aVups
p124
aVusps
p125
atp126
Rp127
sVmalaysium
p128
g2
((lp129
Vmalaysia airlines
p130
atp131
Rp132
sVburger
p133
g2
((lp134
Vmcdonalds
p135
atp136
Rp137
sVvideo
p138
g2
((lp139
Vamazon
p140
aVskype
p141
aVcisco
p142
aVnetflix
p143
atp144
Rp145
sVmultimedia
p146
g2
((lp147
Vadobe
p148
atp149
Rp150
sVcrust
p151
g2
((lp152
Vdominos
p153
atp154
Rp155
sVcell
p156
g2
((lp157
Vat&t
p158
aVnokia
p159
aVt-mobile
p160
aVvirgin mobile
p161
aVsamsung
p162
atp163
Rp164
sVversion
p165
g2
((lp166
Vmicrosoft
p167
atp168
Rp169
sVsupplies
p170
g2
((lp171
Vhome depot
p172
atp173
Rp174
sV3d
p175
g2
((lp176
Vhp
p177
atp178
Rp179
sVtransportation
p180
g2
((lp181
Vfedex
p182
aVdhl
p183
aVups
p184
aVusps
p185
atp186
Rp187
sVfrench
p188
g2
((lp189
Vfrance tourism
p190
atp191
Rp192
sVchina
p193
g2
((lp194
Vchina tourism
p195
aVchina national petroleum corporation
p196
atp197
Rp198
sVethanol
p199
g2
((lp200
Vshell
p201
aVexxon mobil
p202
aVbp
p203
aVchina national petroleum corporation
p204
aVroyal dutch shell
p205
aVchevron corporation
p206
atp207
Rp208
sVsearch
p209
g2
((lp210
Vmicrosoft
p211
atp212
Rp213
sVusps
p214
g2
((lp215
Vusps
p216
atp217
Rp218
sValaska
p219
g2
((lp220
Vusa tourism
p221
atp222
Rp223
sVcredit
p224
g2
((lp225
Vpaypal
p226
atp227
Rp228
sVsocial
p229
g2
((lp230
Vfacebook
p231
atp232
Rp233
sVapple
p234
g2
((lp235
Vapple
p236
atp237
Rp238
sVfamily
p239
g2
((lp240
Vexpedia
p241
aVtripadvisor
p242
aVfrance tourism
p243
aVmakemytrip
p244
aVitaly tourism
p245
aVchina tourism
p246
aVuk tourism
p247
aVholiday inn
p248
aVusa tourism
p249
aVspain tourism
p250
atp251
Rp252
sVmobil
p253
g2
((lp254
Vexxon mobil
p255
atp256
Rp257
sVpost
p258
g2
((lp259
Vusps
p260
atp261
Rp262
sVmarket
p263
g2
((lp264
Vflipkart
p265
atp266
Rp267
sVuse
p268
g2
((lp269
Vshell
p270
aVexxon mobil
p271
aVchina national petroleum corporation
p272
aVsamsung
p273
aVnokia
p274
aVt-mobile
p275
aVbp
p276
aVvirgin mobile
p277
aVskype
p278
aVroyal dutch shell
p279
aVcisco
p280
aVchevron corporation
p281
aVmicrosoft
p282
aVapple
p283
atp284
Rp285
sVusa
p286
g2
((lp287
Vunited airlines
p288
aVusa tourism
p289
atp290
Rp291
sVpetroleum
p292
g2
((lp293
g196
atp294
Rp295
sVfrance
p296
g2
((lp297
Vfrance tourism
p298
atp299
Rp300
sVcall
p301
g2
((lp302
Vat&t
p303
ag141
atp304
Rp305
sVcomcast
p306
g2
((lp307
Vcomcast
p308
atp309
Rp310
sVrecommend
p311
g2
((lp312
Vyelp
p313
atp314
Rp315
sVinjury
p316
g2
((lp317
Va-lawyers
p318
atp319
Rp320
sVexpedia
p321
g2
((lp322
Vexpedia
p323
atp324
Rp325
sVrelax
p326
g2
((lp327
Vexpedia
p328
aVtripadvisor
p329
aVfrance tourism
p330
aVmakemytrip
p331
aVitaly tourism
p332
aVchina tourism
p333
aVuk tourism
p334
aVholiday inn
p335
aVusa tourism
p336
aVspain tourism
p337
atp338
Rp339
sVcompany
p340
g2
((lp341
Vexpedia
p342
aVtripadvisor
p343
aVbudget
p344
aVavis
p345
aVholiday inn
p346
aVmakemytrip
p347
atp348
Rp349
sVemployee
p350
g2
((lp351
Vcostco
p352
atp353
Rp354
sVhigh
p355
g2
((lp356
Vat&t
p357
aVcisco
p358
aVcomcast
p359
aVvirgin mobile
p360
aVt-mobile
p361
atp362
Rp363
sVword
p364
g2
((lp365
Vnokia
p366
atp367
Rp368
sVibm
p369
g2
((lp370
Vibm
p371
atp372
Rp373
sVcar
p374
g2
((lp375
Vfiat
p376
aVexpedia
p377
aVtripadvisor
p378
aVhonda
p379
aVtoyota
p380
aVbudget
p381
aVford
p382
aVavis
p383
aVholiday inn
p384
aVmakemytrip
p385
aVkia
p386
aVvolkswagen group
p387
aVbmw
p388
atp389
Rp390
sVwork
p391
g2
((lp392
Vexpedia
p393
aVtripadvisor
p394
aVfrance tourism
p395
aVmakemytrip
p396
aVitaly tourism
p397
aVchina tourism
p398
aVuk tourism
p399
aVholiday inn
p400
aVusa tourism
p401
aVspain tourism
p402
atp403
Rp404
sVgasoline
p405
g2
((lp406
Vshell
p407
aVexxon mobil
p408
aVbp
p409
aVchina national petroleum corporation
p410
aVroyal dutch shell
p411
aVchevron corporation
p412
atp413
Rp414
sVprinting
p415
g2
((lp416
g177
aVamazon
p417
atp418
Rp419
sVisland
p420
g2
((lp421
Vusa tourism
p422
atp423
Rp424
sVstream
p425
g2
((lp426
Vamazon
p427
aVnetflix
p428
atp429
Rp430
sVprocess
p431
g2
((lp432
Vatlassian
p433
atp434
Rp435
sVbenz
p436
g2
((lp437
Vfiat
p438
aVhonda
p439
aVtoyota
p440
aVford
p441
aVbmw
p442
aVkia
p443
aVvolkswagen group
p444
atp445
Rp446
sVaccept
p447
g2
((lp448
g226
atp449
Rp450
sVstates
p451
g2
((lp452
Vusa tourism
p453
atp454
Rp455
sVcollision
p456
g2
((lp457
Va-lawyers
p458
atp459
Rp460
sVhilton
p461
g2
((lp462
Vhilton
p463
atp464
Rp465
sVclothing
p466
g2
((lp467
Vold navy
p468
aVsears
p469
atp470
Rp471
sVdress
p472
g2
((lp473
Vtarget
p474
atp475
Rp476
sVunited
p477
g2
((lp478
Vunited airlines
p479
aVuk tourism
p480
aVusa tourism
p481
atp482
Rp483
sVuae
p484
g2
((lp485
Vemirates
p486
atp487
Rp488
sVtravel
p489
g2
((lp490
Vexpedia
p491
aVtripadvisor
p492
aVchina tourism
p493
aVuk tourism
p494
aVholiday inn
p495
aVmakemytrip
p496
aVusa tourism
p497
atp498
Rp499
sVmachine
p500
g2
((lp501
Vsears
p502
aVibm
p503
atp504
Rp505
sVpizza
p506
g2
((lp507
Vdominos
p508
atp509
Rp510
sVproduct
p511
g2
((lp512
Vflipkart
p513
atp514
Rp515
sVdominos
p516
g2
((lp517
Vdominos
p518
atp519
Rp520
sVmac
p521
g2
((lp522
Vmicrosoft
p523
atp524
Rp525
sVcarribean
p526
g2
((lp527
Vusa tourism
p528
atp529
Rp530
sVengineering
p531
g2
((lp532
Vatlassian
p533
atp534
Rp535
sVmedia
p536
g2
((lp537
Vamazon
p538
ag231
aVnetflix
p539
atp540
Rp541
sVoperate
p542
g2
((lp543
Vmicrosoft
p544
atp545
Rp546
sVwing
p547
g2
((lp548
Vdominos
p549
atp550
Rp551
sVphotoshop
p552
g2
((lp553
Vadobe
p554
atp555
Rp556
sVoffice
p557
g2
((lp558
Vmicrosoft
p559
atp560
Rp561
sVstylus
p562
g2
((lp563
Vsamsung
p564
atp565
Rp566
sVpaper
p567
g2
((lp568
Vamazon
p569
atp570
Rp571
sVdough
p572
g2
((lp573
Vdominos
p574
atp575
Rp576
sVshake
p577
g2
((lp578
Vmcdonalds
p579
atp580
Rp581
sVmcdonalds
p582
g2
((lp583
Vmcdonalds
p584
atp585
Rp586
sVgalaxy
p587
g2
((lp588
Vsamsung
p589
atp590
Rp591
sVgroup
p592
g2
((lp593
Vvolkswagen group
p594
atp595
Rp596
sVimp
p597
g2
((lp598
Vshell
p599
aVexxon mobil
p600
aVbp
p601
aVchina national petroleum corporation
p602
aVroyal dutch shell
p603
aVchevron corporation
p604
atp605
Rp606
sVproduction
p607
g2
((lp608
Vhp
p609
atp610
Rp611
sVavis
p612
g2
((lp613
Vavis
p614
atp615
Rp616
sVmail
p617
g2
((lp618
Vusps
p619
atp620
Rp621
sVholiday
p622
g2
((lp623
Vexpedia
p624
aVtripadvisor
p625
aVfrance tourism
p626
aVmakemytrip
p627
aVitaly tourism
p628
aVchina tourism
p629
aVuk tourism
p630
aVholiday inn
p631
aVusa tourism
p632
aVspain tourism
p633
atp634
Rp635
sVcoffee
p636
g2
((lp637
Vapplebees
p638
atp639
Rp640
sVcrash
p641
g2
((lp642
Va-lawyers
p643
atp644
Rp645
sVtourist
p646
g2
((lp647
Vexpedia
p648
aVtripadvisor
p649
aVuk tourism
p650
aVholiday inn
p651
aVmakemytrip
p652
aVusa tourism
p653
atp654
Rp655
sVfood
p656
g2
((lp657
Vdominos
p658
aVmcdonalds
p659
aVyelp
p660
aVapplebees
p661
atp662
Rp663
sVgadget
p664
g2
((lp665
Vbest buy
p666
atp667
Rp668
sVmaterial
p669
g2
((lp670
Vhp
p671
atp672
Rp673
sVa-lawyer
p674
g2
((lp675
Va-lawyers
p676
atp677
Rp678
sVtourism
p679
g2
((lp680
Vexpedia
p681
aVtripadvisor
p682
ag298
aVmakemytrip
p683
aVitaly tourism
p684
ag195
aVuk tourism
p685
aVholiday inn
p686
ag289
aVspain tourism
p687
atp688
Rp689
sVday
p690
g2
((lp691
Vexpedia
p692
aVtripadvisor
p693
aVfrance tourism
p694
aVmakemytrip
p695
aVitaly tourism
p696
aVchina tourism
p697
aVuk tourism
p698
aVholiday inn
p699
aVusa tourism
p700
aVspain tourism
p701
atp702
Rp703
sVbread
p704
g2
((lp705
Vapplebees
p706
atp707
Rp708
sVtransmitter
p709
g2
((lp710
Vnokia
p711
aVapple
p712
atp713
Rp714
sVflipkart
p715
g2
((lp716
Vflipkart
p717
atp718
Rp719
sVengland
p720
g2
((lp721
Vuk tourism
p722
atp723
Rp724
sVgeneration
p725
g2
((lp726
Vapple
p727
atp728
Rp729
sVseries
p730
g2
((lp731
Vsamsung
p732
atp733
Rp734
sVenergy
p735
g2
((lp736
Vshell
p737
aVexxon mobil
p738
aVbp
p739
aVchina national petroleum corporation
p740
aVroyal dutch shell
p741
aVchevron corporation
p742
atp743
Rp744
sVhawaii
p745
g2
((lp746
Vusa tourism
p747
atp748
Rp749
sVsears
p750
g2
((lp751
Vsears
p752
atp753
Rp754
sVoil
p755
g2
((lp756
Vshell
p757
aVexxon mobil
p758
aVbp
p759
aVchina national petroleum corporation
p760
aVroyal dutch shell
p761
aVchevron corporation
p762
atp763
Rp764
sVconnect
p765
g2
((lp766
Vfacebook
p767
atp768
Rp769
sVnavy
p770
g2
((lp771
Vold navy
p772
atp773
Rp774
sVbeyond
p775
g2
((lp776
Vsears
p777
atp778
Rp779
sVinsurance
p780
g2
((lp781
Vexpedia
p782
aVtripadvisor
p783
aVbudget
p784
aVavis
p785
aVholiday inn
p786
aVmakemytrip
p787
atp788
Rp789
sVnetwork
p790
g2
((lp791
Vnokia
p792
aVcisco
p793
atp794
Rp795
sVresearch
p796
g2
((lp797
Vibm
p798
atp799
Rp800
sVcontent
p801
g2
((lp802
Vamazon
p803
aVnetflix
p804
atp805
Rp806
sVtrauma
p807
g2
((lp808
Va-lawyers
p809
atp810
Rp811
sVinternet
p812
g2
((lp813
Vcisco
p814
aVnetflix
p815
aVnokia
p816
ag361
aVamazon
p817
aVcomcast
p818
ag360
ag357
atp819
Rp820
sVprint
p821
g2
((lp822
Vlexmark
p823
atp824
Rp825
sVelectronics
p826
g2
((lp827
Vbest buy
p828
atp829
Rp830
sVcause
p831
g2
((lp832
Va-lawyers
p833
atp834
Rp835
sVdriver
p836
g2
((lp837
Va-lawyers
p838
atp839
Rp840
sVcard
p841
g2
((lp842
g226
atp843
Rp844
sVfiat
p845
g2
((lp846
Vfiat
p847
atp848
Rp849
sVmotion
p850
g2
((lp851
Vadobe
p852
atp853
Rp854
sVatt
p855
g2
((lp856
g303
atp857
Rp858
sVplace
p859
g2
((lp860
Vdominos
p861
aVmcdonalds
p862
aVapplebees
p863
atp864
Rp865
sVrouter
p866
g2
((lp867
Vcisco
p868
atp869
Rp870
sVcheese
p871
g2
((lp872
Vdominos
p873
aVapplebees
p874
atp875
Rp876
sVamericans
p877
g2
((lp878
Vusa tourism
p879
atp880
Rp881
sVchevron
p882
g2
((lp883
Vchevron corporation
p884
atp885
Rp886
sVspanish
p887
g2
((lp888
Vspain tourism
p889
atp890
Rp891
sVowner
p892
g2
((lp893
Vcostco
p894
atp895
Rp896
sVmessage
p897
g2
((lp898
Vnokia
p899
atp900
Rp901
sVmanagement
p902
g2
((lp903
Vfedex
p904
aVdhl
p905
aVusps
p906
aVups
p907
aVatlassian
p908
atp909
Rp910
sVservice
p911
g2
((lp912
Vunited airlines
p913
aVemirates
p914
aVcisco
p915
aVusps
p916
aVt-mobile
p917
aVlufthansa
p918
aVamazon
p919
aVmalaysia airlines
p920
aVhilton
p921
aVturkish airlines
p922
aVvirgin mobile
p923
aVskype
p924
aVat&t
p925
aVmarriott
p926
aVcomcast
p927
atp928
Rp929
sVautomobile
p930
g2
((lp931
Vfiat
p932
aVa-lawyers
p933
aVhonda
p934
aVtoyota
p935
aVford
p936
aVbmw
p937
aVkia
p938
aVvolkswagen group
p939
atp940
Rp941
sVsystem
p942
g2
((lp943
Vskype
p944
aVusps
p945
aVcisco
p946
aVmicrosoft
p947
aVsamsung
p948
atp949
Rp950
sVsaint
p951
g2
((lp952
Vusa tourism
p953
atp954
Rp955
sVfriend
p956
g2
((lp957
g767
atp958
Rp959
sVoils
p960
g2
((lp961
Vshell
p962
aVexxon mobil
p963
aVbp
p964
aVchina national petroleum corporation
p965
aVroyal dutch shell
p966
aVchevron corporation
p967
atp968
Rp969
sVshell
p970
g2
((lp971
g70
aVshell
p972
atp973
Rp974
sVtool
p975
g2
((lp976
Vadobe
p977
atp978
Rp979
sVhotel
p980
g2
((lp981
Vexpedia
p982
aVtripadvisor
p983
aVhilton
p984
aVholiday inn
p985
aVmakemytrip
p986
aVmarriott
p987
atp988
Rp989
sVpopulation
p990
g2
((lp991
Vusa tourism
p992
atp993
Rp994
sVipad
p995
g2
((lp996
Vapple
p997
atp998
Rp999
sVtelevision
p1000
g2
((lp1001
Vsamsung
p1002
atp1003
Rp1004
sVapplebee
p1005
g2
((lp1006
Vapplebees
p1007
atp1008
Rp1009
sVtarget
p1010
g2
((lp1011
Vtarget
p1012
atp1013
Rp1014
sVbed
p1015
g2
((lp1016
g777
atp1017
Rp1018
sVemirates
p1019
g2
((lp1020
Vemirates
p1021
atp1022
Rp1023
sVsurname
p1024
g2
((lp1025
Vmcdonalds
p1026
atp1027
Rp1028
sVrent
p1029
g2
((lp1030
g377
ag378
ag381
ag383
ag384
ag385
atp1031
Rp1032
sVneed
p1033
g2
((lp1034
Vhome depot
p1035
atp1036
Rp1037
sVbreakfast
p1038
g2
((lp1039
Vapplebees
p1040
atp1041
Rp1042
sVnote
p1043
g2
((lp1044
Vsamsung
p1045
atp1046
Rp1047
sVanimation
p1048
g2
((lp1049
Vadobe
p1050
atp1051
Rp1052
sVbuild
p1053
g2
((lp1054
Vmarriott
p1055
aVhilton
p1056
atp1057
Rp1058
sVonline
p1059
g2
((lp1060
Vyelp
p1061
aVnetflix
p1062
aVpaypal
p1063
aVamazon
p1064
aVfacebook
p1065
ag265
atp1066
Rp1067
sVmemory
p1068
g2
((lp1069
Vibm
p1070
atp1071
Rp1072
sVprinter
p1073
g2
((lp1074
Vhp
p1075
aVlexmark
p1076
atp1077
Rp1078
sVcollaboration
p1079
g2
((lp1080
Vatlassian
p1081
atp1082
Rp1083
sVreach
p1084
g2
((lp1085
Vfacebook
p1086
atp1087
Rp1088
sVnetflix
p1089
g2
((lp1090
Vnetflix
p1091
atp1092
Rp1093
sVgermany
p1094
g2
((lp1095
Vlufthansa
p1096
atp1097
Rp1098
sVplan
p1099
g2
((lp1100
Vat&t
p1101
aVvirgin mobile
p1102
aVt-mobile
p1103
atp1104
Rp1105
sVicloud
p1106
g2
((lp1107
Vapple
p1108
atp1109
Rp1110
sVdevice
p1111
g2
((lp1112
Vmicrosoft
p1113
aVapple
p1114
atp1115
Rp1116
sVamerica
p1117
g2
((lp1118
Vusa tourism
p1119
atp1120
Rp1121
sVpayment
p1122
g2
((lp1123
Vpaypal
p1124
atp1125
Rp1126
sVdelivery
p1127
g2
((lp1128
Vdhl
p1129
aVusps
p1130
aVfedex
p1131
aVamazon
p1132
aVups
p1133
aVflipkart
p1134
atp1135
Rp1136
sVwindows
p1137
g2
((lp1138
Vmicrosoft
p1139
atp1140
Rp1141
sVsale
p1142
g2
((lp1143
Vcostco
p1144
atp1145
Rp1146
sVmicrosoft
p1147
g2
((lp1148
Vmicrosoft
p1149
atp1150
Rp1151
sVcheap
p1152
g2
((lp1153
g624
ag625
aVholiday inn
p1154
aVt-mobile
p1155
ag468
aVvirgin mobile
p1156
ag627
atp1157
Rp1158
sVradio
p1159
g2
((lp1160
Vvirgin mobile
p1161
aVt-mobile
p1162
atp1163
Rp1164
sVchicken
p1165
g2
((lp1166
g549
atp1167
Rp1168
sVaccess
p1169
g2
((lp1170
Vcisco
p1171
aVnokia
p1172
aVt-mobile
p1173
aVcomcast
p1174
aVvirgin mobile
p1175
aVat&t
p1176
atp1177
Rp1178
sVcostco
p1179
g2
((lp1180
Vcostco
p1181
atp1182
Rp1183
sVmenu
p1184
g2
((lp1185
Vapplebees
p1186
atp1187
Rp1188
sVjan
p1189
g2
((lp1190
Vmcdonalds
p1191
atp1192
Rp1193
sVfuel
p1194
g2
((lp1195
Vshell
p1196
aVexxon mobil
p1197
aVbp
p1198
aVchina national petroleum corporation
p1199
aVroyal dutch shell
p1200
aVchevron corporation
p1201
atp1202
Rp1203
sVlocal
p1204
g2
((lp1205
Vyelp
p1206
atp1207
Rp1208
sVhonda
p1209
g2
((lp1210
Vhonda
p1211
atp1212
Rp1213
sVwatch
p1214
g2
((lp1215
Vnetflix
p1216
atp1217
Rp1218
sVpocket
p1219
g2
((lp1220
Vmicrosoft
p1221
atp1222
Rp1223
sVamazon
p1224
g2
((lp1225
Vamazon
p1226
atp1227
Rp1228
sVmerchandise
p1229
g2
((lp1230
Vcostco
p1231
atp1232
Rp1233
sVprime
p1234
g2
((lp1235
g140
atp1236
Rp1237
sVmakemytrip
p1238
g2
((lp1239
Vmakemytrip
p1240
atp1241
Rp1242
sVnational
p1243
g2
((lp1244
g196
atp1245
Rp1246
sVcomputer
p1247
g2
((lp1248
Vhp
p1249
ag793
aVibm
p1250
atp1251
Rp1252
sVresult
p1253
g2
((lp1254
Vmicrosoft
p1255
atp1256
Rp1257
sVbest
p1258
g2
((lp1259
Vbest buy
p1260
atp1261
Rp1262
sVmovie
p1263
g2
((lp1264
g1062
atp1265
Rp1266
sVreview
p1267
g2
((lp1268
g1061
atp1269
Rp1270
sVt-mobile
p1271
g2
((lp1272
Vt-mobile
p1273
atp1274
Rp1275
sVstate
p1276
g2
((lp1277
Vusa tourism
p1278
atp1279
Rp1280
sVconferencing
p1281
g2
((lp1282
g142
atp1283
Rp1284
sVtripadvisor
p1285
g2
((lp1286
Vtripadvisor
p1287
atp1288
Rp1289
sVscreen
p1290
g2
((lp1291
Vapple
p1292
atp1293
Rp1294
sVaircraft
p1295
g2
((lp1296
Vlufthansa
p1297
aVmalaysia airlines
p1298
aVemirates
p1299
aVturkish airlines
p1300
aVunited airlines
p1301
atp1302
Rp1303
sVwear
p1304
g2
((lp1305
Vsears
p1306
atp1307
Rp1308
sVpostage
p1309
g2
((lp1310
Vusps
p1311
atp1312
Rp1313
sVaccident
p1314
g2
((lp1315
Va-lawyers
p1316
atp1317
Rp1318
sVrestaurant
p1319
g2
((lp1320
Vdominos
p1321
aVmcdonalds
p1322
aVyelp
p1323
aVapplebees
p1324
atp1325
Rp1326
sVregion
p1327
g2
((lp1328
Vusa tourism
p1329
atp1330
Rp1331
sVjob
p1332
g2
((lp1333
g798
aVglassdoor
p1334
atp1335
Rp1336
sVtour
p1337
g2
((lp1338
Vexpedia
p1339
aVtripadvisor
p1340
aVholiday inn
p1341
aVmakemytrip
p1342
atp1343
Rp1344
sVagile
p1345
g2
((lp1346
g908
atp1347
Rp1348
sVbell
p1349
g2
((lp1350
Vnokia
p1351
aVapple
p1352
atp1353
Rp1354
sVcolor
p1355
g2
((lp1356
Vsamsung
p1357
atp1358
Rp1359
sVconference
p1360
g2
((lp1361
g303
aVskype
p1362
atp1363
Rp1364
sVairlines
p1365
g2
((lp1366
g479
atp1367
Rp1368
sVireland
p1369
g2
((lp1370
Vuk tourism
p1371
atp1372
Rp1373
sVengine
p1374
g2
((lp1375
g211
atp1376
Rp1377
sVflight
p1378
g2
((lp1379
g288
aVexpedia
p1380
aVtripadvisor
p1381
ag1096
ag130
ag486
aVturkish airlines
p1382
aVholiday inn
p1383
aVmakemytrip
p1384
atp1385
Rp1386
sVgas
p1387
g2
((lp1388
Vshell
p1389
aVexxon mobil
p1390
aVbp
p1391
aVchina national petroleum corporation
p1392
aVroyal dutch shell
p1393
aVchevron corporation
p1394
atp1395
Rp1396
sVatlassian
p1397
g2
((lp1398
Vatlassian
p1399
atp1400
Rp1401
sVgal
p1402
g2
((lp1403
Vshell
p1404
aVexxon mobil
p1405
aVbp
p1406
aVchina national petroleum corporation
p1407
aVroyal dutch shell
p1408
aVchevron corporation
p1409
atp1410
Rp1411
sVbmw
p1412
g2
((lp1413
Vbmw
p1414
atp1415
Rp1416
sVspain
p1417
g2
((lp1418
g687
atp1419
Rp1420
sVmount
p1421
g2
((lp1422
Vchina tourism
p1423
atp1424
Rp1425
sVbudget
p1426
g2
((lp1427
Vbudget
p1428
atp1429
Rp1430
sVoptimization
p1431
g2
((lp1432
Vcisco
p1433
atp1434
Rp1435
sVcentury
p1436
g2
((lp1437
Vdominos
p1438
aVyelp
p1439
aVmcdonalds
p1440
aVamazon
p1441
aVapplebees
p1442
atp1443
Rp1444
sVtelephone
p1445
g2
((lp1446
Vnokia
p1447
aVapple
p1448
atp1449
Rp1450
sVhardware
p1451
g2
((lp1452
g1035
atp1453
Rp1454
sVskype
p1455
g2
((lp1456
Vskype
p1457
atp1458
Rp1459
sVtechnology
p1460
g2
((lp1461
Vcisco
p1462
aVskype
p1463
atp1464
Rp1465
sVdhl
p1466
g2
((lp1467
Vdhl
p1468
atp1469
Rp1470
sVitaly
p1471
g2
((lp1472
g684
atp1473
Rp1474
sVpay
p1475
g2
((lp1476
Vpaypal
p1477
aVglassdoor
p1478
atp1479
Rp1480
sVconnection
p1481
g2
((lp1482
Vcisco
p1483
atp1484
Rp1485
sVandroid
p1486
g2
((lp1487
Vsamsung
p1488
atp1489
Rp1490
sVdevelopment
p1491
g2
((lp1492
Vatlassian
p1493
atp1494
Rp1495
sVnokia
p1496
g2
((lp1497
Vnokia
p1498
atp1499
Rp1500
sVcartridge
p1501
g2
((lp1502
Vhp
p1503
aVlexmark
p1504
atp1505
Rp1506
sVios
p1507
g2
((lp1508
Vapple
p1509
atp1510
Rp1511
sVuser
p1512
g2
((lp1513
Vnokia
p1514
aVfacebook
p1515
aVapple
p1516
atp1517
Rp1518
sVstudent
p1519
g2
((lp1520
Vglassdoor
p1521
atp1522
Rp1523
sVkia
p1524
g2
((lp1525
Vkia
p1526
atp1527
Rp1528
sVkid
p1529
g2
((lp1530
g474
atp1531
Rp1532
sVmodel
p1533
g2
((lp1534
Va-lawyers
p1535
aVapple
p1536
atp1537
Rp1538
sVspeed
p1539
g2
((lp1540
g357
ag358
ag359
ag360
ag361
atp1541
Rp1542
sVweb
p1543
g2
((lp1544
Vamazon
p1545
aVmicrosoft
p1546
atp1547
Rp1548
sVrental
p1549
g2
((lp1550
Vexpedia
p1551
aVtripadvisor
p1552
aVbudget
p1553
aVavis
p1554
aVholiday inn
p1555
aVmakemytrip
p1556
atp1557
Rp1558
sVsupply
p1559
g2
((lp1560
Vfedex
p1561
aVdhl
p1562
aVups
p1563
aVusps
p1564
atp1565
Rp1566
sVroyal
p1567
g2
((lp1568
g70
atp1569
Rp1570
sVeasy
p1571
g2
((lp1572
g1124
atp1573
Rp1574
sVsmart
p1575
g2
((lp1576
Vapple
p1577
atp1578
Rp1579
sVkingdom
p1580
g2
((lp1581
Vuk tourism
p1582
atp1583
Rp1584
sVlcd
p1585
g2
((lp1586
g33
atp1587
Rp1588
sVtraffic
p1589
g2
((lp1590
Va-lawyers
p1591
atp1592
Rp1593
sVwholesaler
p1594
g2
((lp1595
Vcostco
p1596
atp1597
Rp1598
sVworld
p1599
g2
((lp1600
Vusa tourism
p1601
atp1602
Rp1603
sVdubai
p1604
g2
((lp1605
g1339
ag1340
ag1341
ag1342
atp1606
Rp1607
sVexxon
p1608
g2
((lp1609
g255
atp1610
Rp1611
sVtoyota
p1612
g2
((lp1613
Vtoyota
p1614
atp1615
Rp1616
sVserver
p1617
g2
((lp1618
Vhp
p1619
aVibm
p1620
atp1621
Rp1622
sVitalian
p1623
g2
((lp1624
Vitaly tourism
p1625
atp1626
Rp1627
sVold
p1628
g2
((lp1629
g772
atp1630
Rp1631
sVverbal
p1632
g2
((lp1633
Vnokia
p1634
atp1635
Rp1636
sVpeople
p1637
g2
((lp1638
Vexpedia
p1639
aVtripadvisor
p1640
ag1086
aVuk tourism
p1641
aVholiday inn
p1642
aVmakemytrip
p1643
aVusa tourism
p1644
atp1645
Rp1646
sVstreaming
p1647
g2
((lp1648
Vamazon
p1649
ag143
atp1650
Rp1651
sVintern
p1652
g2
((lp1653
Vglassdoor
p1654
atp1655
Rp1656
sVhome
p1657
g2
((lp1658
Vsears
p1659
aVhome depot
p1660
atp1661
Rp1662
sVoctane
p1663
g2
((lp1664
Vshell
p1665
aVexxon mobil
p1666
aVbp
p1667
aVchina national petroleum corporation
p1668
aVroyal dutch shell
p1669
aVchevron corporation
p1670
atp1671
Rp1672
sVcaribbean
p1673
g2
((lp1674
Vusa tourism
p1675
atp1676
Rp1677
sVbroadband
p1678
g2
((lp1679
Vat&t
p1680
aVcisco
p1681
aVcomcast
p1682
aVvirgin mobile
p1683
aVt-mobile
p1684
atp1685
Rp1686
sVcreative
p1687
g2
((lp1688
Vadobe
p1689
atp1690
Rp1691
sVpen
p1692
g2
((lp1693
Vsamsung
p1694
atp1695
Rp1696
sVcloud
p1697
g2
((lp1698
Vcisco
p1699
atp1700
Rp1701
sVturkey
p1702
g2
((lp1703
g1382
atp1704
Rp1705
sVbusiness
p1706
g2
((lp1707
g1619
ag106
ag1206
atp1708
Rp1709
sVinternship
p1710
g2
((lp1711
Vglassdoor
p1712
atp1713
Rp1714
sVlexmark
p1715
g2
((lp1716
Vlexmark
p1717
atp1718
Rp1719
sVvolkswagen
p1720
g2
((lp1721
g594
atp1722
Rp1723
sVbp
p1724
g2
((lp1725
Vbp
p1726
atp1727
Rp1728
sVat&t
p1729
g2
((lp1730
Vat&t
p1731
atp1732
Rp1733
sVwsdl
p1734
g2
((lp1735
Vamazon
p1736
atp1737
Rp1738
sVgoods
p1739
g2
((lp1740
Vsears
p1741
aVcostco
p1742
atp1743
Rp1744
sVpackage
p1745
g2
((lp1746
Vfedex
p1747
aVamazon
p1748
aVdhl
p1749
aVups
p1750
aVusps
p1751
atp1752
Rp1753
sVanchorage
p1754
g2
((lp1755
Vusa tourism
p1756
atp1757
Rp1758
sVvideophone
p1759
g2
((lp1760
Vcisco
p1761
aVskype
p1762
atp1763
Rp1764
sVairline
p1765
g2
((lp1766
Vlufthansa
p1767
aVmalaysia airlines
p1768
aVemirates
p1769
ag28
aVunited airlines
p1770
atp1771
Rp1772
sVislands
p1773
g2
((lp1774
Vusa tourism
p1775
atp1776
Rp1777
sVmarriott
p1778
g2
((lp1779
Vmarriott
p1780
atp1781
Rp1782
sVroad
p1783
g2
((lp1784
Va-lawyers
p1785
atp1786
Rp1787
sVsoftware
p1788
g2
((lp1789
Vglassdoor
p1790
ag101
ag908
atp1791
Rp1792
sVcommunication
p1793
g2
((lp1794
Vnokia
p1795
aVvirgin mobile
p1796
aVt-mobile
p1797
atp1798
Rp1799
sVimage
p1800
g2
((lp1801
Vadobe
p1802
aVsamsung
p1803
atp1804
Rp1805
sVbath
p1806
g2
((lp1807
g777
atp1808
Rp1809
sVservices
p1810
g2
((lp1811
g1545
atp1812
Rp1813
sVpaypal
p1814
g2
((lp1815
Vpaypal
p1816
atp1817
Rp1818
sVadobe
p1819
g2
((lp1820
Vadobe
p1821
atp1822
Rp1823
sVwan
p1824
g2
((lp1825
g1433
atp1826
Rp1827
sVdeal
p1828
g2
((lp1829
Vamazon
p1830
atp1831
Rp1832
sVvirgin
p1833
g2
((lp1834
Vvirgin mobile
p1835
atp1836
Rp1837
sViphone
p1838
g2
((lp1839
Vapple
p1840
atp1841
Rp1842
sVmanufacture
p1843
g2
((lp1844
Vhp
p1845
atp1846
Rp1847
sVbuy
p1848
g2
((lp1849
g116
ag1249
ag1064
ag1260
aVflipkart
p1850
atp1851
Rp1852
sVnorth
p1853
g2
((lp1854
Vusa tourism
p1855
atp1856
Rp1857
sVhp
p1858
g2
((lp1859
Vhp
p1860
atp1861
Rp1862
sVvehicle
p1863
g2
((lp1864
Vfiat
p1865
aVa-lawyers
p1866
aVhonda
p1867
aVtoyota
p1868
aVford
p1869
aVbmw
p1870
aVkia
p1871
aVvolkswagen group
p1872
atp1873
Rp1874
sVford
p1875
g2
((lp1876
Vford
p1877
atp1878
Rp1879
sVwireless
p1880
g2
((lp1881
Vat&t
p1882
aVvirgin mobile
p1883
aVt-mobile
p1884
atp1885
Rp1886
sVline
p1887
g2
((lp1888
Vnokia
p1889
aVapple
p1890
atp1891
Rp1892
sVediting
p1893
g2
((lp1894
g148
atp1895
Rp1896
sVeat
p1897
g2
((lp1898
g861
ag862
ag863
atp1899
Rp1900
sVmalaysia
p1901
g2
((lp1902
g1768
atp1903
Rp1904
sVwholesale
p1905
g2
((lp1906
Vcostco
p1907
atp1908
Rp1909
sVsamsung
p1910
g2
((lp1911
Vsamsung
p1912
atp1913
Rp1914
sVappliance
p1915
g2
((lp1916
g1659
atp1917
Rp1918
sVus
p1919
g2
((lp1920
Vusa tourism
p1921
aVadobe
p1922
atp1923
Rp1924
sVmobile
p1925
g2
((lp1926
Vapple
p1927
aVsamsung
p1928
aVnokia
p1929
ag1103
ag1835
ag1101
aVmicrosoft
p1930
atp1931
Rp1932
sVglassdoor
p1933
g2
((lp1934
Vglassdoor
p1935
atp1936
Rp1937
sVuk
p1938
g2
((lp1939
g685
atp1940
Rp1941
sVtoner
p1942
g2
((lp1943
g1503
atp1944
Rp1945
sVinn
p1946
g2
((lp1947
g631
atp1948
Rp1949
sVink
p1950
g2
((lp1951
g823
atp1952
Rp1953
sVfilm
p1954
g2
((lp1955
Vadobe
p1956
atp1957
Rp1958
sVcorporation
p1959
g2
((lp1960
g884
ag196
atp1961
Rp1962
sVapplication
p1963
g2
((lp1964
g1699
aVapple
p1965
atp1966
Rp1967
sVbook
p1968
g2
((lp1969
g1380
ag1381
aVamazon
p1970
ag91
ag1383
ag1384
ag90
atp1971
Rp1972
sVvacation
p1973
g2
((lp1974
Vexpedia
p1975
aVtripadvisor
p1976
aVfrance tourism
p1977
aVmakemytrip
p1978
aVitaly tourism
p1979
aVchina tourism
p1980
aVuk tourism
p1981
aVholiday inn
p1982
aVusa tourism
p1983
aVspain tourism
p1984
atp1985
Rp1986
sVdepot
p1987
g2
((lp1988
g1660
atp1989
Rp1990
sVjune
p1991
g2
((lp1992
Vsamsung
p1993
atp1994
Rp1995
sVlufthansa
p1996
g2
((lp1997
Vlufthansa
p1998
atp1999
Rp2000
sVyelp
p2001
g2
((lp2002
Vyelp
p2003
atp2004
Rp2005
sVphone
p2006
g2
((lp2007
Vapple
p2008
ag162
ag1929
ag160
ag161
aVskype
p2009
ag158
aVmicrosoft
p2010
atp2011
Rp2012
sVwifi
p2013
g2
((lp2014
g868
atp2015
Rp2016
sVtime
p2017
g2
((lp2018
Vexpedia
p2019
aVtripadvisor
p2020
aVfrance tourism
p2021
aVmakemytrip
p2022
aVitaly tourism
p2023
aVchina tourism
p2024
aVuk tourism
p2025
aVholiday inn
p2026
aVusa tourism
p2027
aVspain tourism
p2028
atp2029
Rp2030
s.(dp0
Vunited airlines
p1
cnumpy.core.multiarray
_reconstruct
p2
(cnumpy
ndarray
p3
(I0
tp4
S'b'
p5
tp6
Rp7
(I1
(I2
tp8
cnumpy
dtype
p9
(S'i8'
p10
I0
I1
tp11
Rp12
(I3
S'<'
p13
NNNI-1
I-1
I0
tp14
bI00
S'\x00\x00\x00\x00\x00\x00\x00\x00\x00\x00\x00\x00\x00\x00\x00\x00'
p15
tp16
bsVusps
p17
g2
(g3
(I0
tp18
g5
tp19
Rp20
(I1
(I2
tp21
g12
I00
S'\x00\x00\x00\x00\x00\x00\x00\x00\x00\x00\x00\x00\x00\x00\x00\x00'
p22
tp23
bsVexxon mobil
p24
g2
(g3
(I0
tp25
g5
tp26
Rp27
(I1
(I2
tp28
g12
I00
S'\x00\x00\x00\x00\x00\x00\x00\x00\x00\x00\x00\x00\x00\x00\x00\x00'
p29
tp30
bsVhome depot
p31
g2
(g3
(I0
tp32
g5
tp33
Rp34
(I1
(I2
tp35
g12
I00
S'\x00\x00\x00\x00\x00\x00\x00\x00\x00\x00\x00\x00\x00\x00\x00\x00'
p36
tp37
bsVfrance tourism
p38
g2
(g3
(I0
tp39
g5
tp40
Rp41
(I1
(I2
tp42
g12
I00
S'\x00\x00\x00\x00\x00\x00\x00\x00\x00\x00\x00\x00\x00\x00\x00\x00'
p43
tp44
bsVold navy
p45
g2
(g3
(I0
tp46
g5
tp47
Rp48
(I1
(I2
tp49
g12
I00
S'\x00\x00\x00\x00\x00\x00\x00\x00\x00\x00\x00\x00\x00\x00\x00\x00'
p50
tp51
bsVadobe
p52
g2
(g3
(I0
tp53
g5
tp54
Rp55
(I1
(I2
tp56
g12
I00
S'\x00\x00\x00\x00\x00\x00\x00\x00\x00\x00\x00\x00\x00\x00\x00\x00'
p57
tp58
bsVexpedia
p59
g2
(g3
(I0
tp60
g5
tp61
Rp62
(I1
(I2
tp63
g12
I00
S'\x00\x00\x00\x00\x00\x00\x00\x00\x00\x00\x00\x00\x00\x00\x00\x00'
p64
tp65
bsVhilton
p66
g2
(g3
(I0
tp67
g5
tp68
Rp69
(I1
(I2
tp70
g12
I00
S'\x00\x00\x00\x00\x00\x00\x00\x00\x00\x00\x00\x00\x00\x00\x00\x00'
p71
tp72
bsVvirgin mobile
p73
g2
(g3
(I0
tp74
g5
tp75
Rp76
(I1
(I2
tp77
g12
I00
S'\x00\x00\x00\x00\x00\x00\x00\x00\x00\x00\x00\x00\x00\x00\x00\x00'
p78
tp79
bsVskype
p80
g2
(g3
(I0
tp81
g5
tp82
Rp83
(I1
(I2
tp84
g12
I00
S'\x00\x00\x00\x00\x00\x00\x00\x00\x00\x00\x00\x00\x00\x00\x00\x00'
p85
tp86
bsVsears
p87
g2
(g3
(I0
tp88
g5
tp89
Rp90
(I1
(I2
tp91
g12
I00
S'\x00\x00\x00\x00\x00\x00\x00\x00\x00\x00\x00\x00\x00\x00\x00\x00'
p92
tp93
bsVspain tourism
p94
g2
(g3
(I0
tp95
g5
tp96
Rp97
(I1
(I2
tp98
g12
I00
S'\x00\x00\x00\x00\x00\x00\x00\x00\x00\x00\x00\x00\x00\x00\x00\x00'
p99
tp100
bsVmcdonalds
p101
g2
(g3
(I0
tp102
g5
tp103
Rp104
(I1
(I2
tp105
g12
I00
S'\x00\x00\x00\x00\x00\x00\x00\x00\x00\x00\x00\x00\x00\x00\x00\x00'
p106
tp107
bsVfedex
p108
g2
(g3
(I0
tp109
g5
tp110
Rp111
(I1
(I2
tp112
g12
I00
S'\x00\x00\x00\x00\x00\x00\x00\x00\x00\x00\x00\x00\x00\x00\x00\x00'
p113
tp114
bsVvolkswagen group
p115
g2
(g3
(I0
tp116
g5
tp117
Rp118
(I1
(I2
tp119
g12
I00
S'\x00\x00\x00\x00\x00\x00\x00\x00\x00\x00\x00\x00\x00\x00\x00\x00'
p120
tp121
bsVapple
p122
g2
(g3
(I0
tp123
g5
tp124
Rp125
(I1
(I2
tp126
g12
I00
S'\x00\x00\x00\x00\x00\x00\x00\x00\x00\x00\x00\x00\x00\x00\x00\x00'
p127
tp128
bsVitaly tourism
p129
g2
(g3
(I0
tp130
g5
tp131
Rp132
(I1
(I2
tp133
g12
I00
S'\x00\x00\x00\x00\x00\x00\x00\x00\x00\x00\x00\x00\x00\x00\x00\x00'
p134
tp135
bsVa-lawyers
p136
g2
(g3
(I0
tp137
g5
tp138
Rp139
(I1
(I2
tp140
g12
I00
S'\x00\x00\x00\x00\x00\x00\x00\x00\x00\x00\x00\x00\x00\x00\x00\x00'
p141
tp142
bsVglassdoor
p143
g2
(g3
(I0
tp144
g5
tp145
Rp146
(I1
(I2
tp147
g12
I00
S'\x00\x00\x00\x00\x00\x00\x00\x00\x00\x00\x00\x00\x00\x00\x00\x00'
p148
tp149
bsVt-mobile
p150
g2
(g3
(I0
tp151
g5
tp152
Rp153
(I1
(I2
tp154
g12
I00
S'\x00\x00\x00\x00\x00\x00\x00\x00\x00\x00\x00\x00\x00\x00\x00\x00'
p155
tp156
bsVmalaysia airlines
p157
g2
(g3
(I0
tp158
g5
tp159
Rp160
(I1
(I2
tp161
g12
I00
S'\x00\x00\x00\x00\x00\x00\x00\x00\x00\x00\x00\x00\x00\x00\x00\x00'
p162
tp163
bsVcomcast
p164
g2
(g3
(I0
tp165
g5
tp166
Rp167
(I1
(I2
tp168
g12
I00
S'\x00\x00\x00\x00\x00\x00\x00\x00\x00\x00\x00\x00\x00\x00\x00\x00'
p169
tp170
bsVshell
p171
g2
(g3
(I0
tp172
g5
tp173
Rp174
(I1
(I2
tp175
g12
I00
S'\x00\x00\x00\x00\x00\x00\x00\x00\x00\x00\x00\x00\x00\x00\x00\x00'
p176
tp177
bsVchevron corporation
p178
g2
(g3
(I0
tp179
g5
tp180
Rp181
(I1
(I2
tp182
g12
I00
S'\x00\x00\x00\x00\x00\x00\x00\x00\x00\x00\x00\x00\x00\x00\x00\x00'
p183
tp184
bsVapplebees
p185
g2
(g3
(I0
tp186
g5
tp187
Rp188
(I1
(I2
tp189
g12
I00
S'\x00\x00\x00\x00\x00\x00\x00\x00\x00\x00\x00\x00\x00\x00\x00\x00'
p190
tp191
bsVavis
p192
g2
(g3
(I0
tp193
g5
tp194
Rp195
(I1
(I2
tp196
g12
I00
S'\x00\x00\x00\x00\x00\x00\x00\x00\x00\x00\x00\x00\x00\x00\x00\x00'
p197
tp198
bsVpaypal
p199
g2
(g3
(I0
tp200
g5
tp201
Rp202
(I1
(I2
tp203
g12
I00
S'\x00\x00\x00\x00\x00\x00\x00\x00\x00\x00\x00\x00\x00\x00\x00\x00'
p204
tp205
bsVtripadvisor
p206
g2
(g3
(I0
tp207
g5
tp208
Rp209
(I1
(I2
tp210
g12
I00
S'\x00\x00\x00\x00\x00\x00\x00\x00\x00\x00\x00\x00\x00\x00\x00\x00'
p211
tp212
bsVlexmark
p213
g2
(g3
(I0
tp214
g5
tp215
Rp216
(I1
(I2
tp217
g12
I00
S'\x00\x00\x00\x00\x00\x00\x00\x00\x00\x00\x00\x00\x00\x00\x00\x00'
p218
tp219
bsVhp
p220
g2
(g3
(I0
tp221
g5
tp222
Rp223
(I1
(I2
tp224
g12
I00
S'\x00\x00\x00\x00\x00\x00\x00\x00\x00\x00\x00\x00\x00\x00\x00\x00'
p225
tp226
bsVnokia
p227
g2
(g3
(I0
tp228
g5
tp229
Rp230
(I1
(I2
tp231
g12
I00
S'\x00\x00\x00\x00\x00\x00\x00\x00\x00\x00\x00\x00\x00\x00\x00\x00'
p232
tp233
bsVatlassian
p234
g2
(g3
(I0
tp235
g5
tp236
Rp237
(I1
(I2
tp238
g12
I00
S'\x00\x00\x00\x00\x00\x00\x00\x00\x00\x00\x00\x00\x00\x00\x00\x00'
p239
tp240
bsVford
p241
g2
(g3
(I0
tp242
g5
tp243
Rp244
(I1
(I2
tp245
g12
I00
S'\x00\x00\x00\x00\x00\x00\x00\x00\x00\x00\x00\x00\x00\x00\x00\x00'
p246
tp247
bsVdominos
p248
g2
(g3
(I0
tp249
g5
tp250
Rp251
(I1
(I2
tp252
g12
I00
S'\x00\x00\x00\x00\x00\x00\x00\x00\x00\x00\x00\x00\x00\x00\x00\x00'
p253
tp254
bsVlufthansa
p255
g2
(g3
(I0
tp256
g5
tp257
Rp258
(I1
(I2
tp259
g12
I00
S'\x00\x00\x00\x00\x00\x00\x00\x00\x00\x00\x00\x00\x00\x00\x00\x00'
p260
tp261
bsVamazon
p262
g2
(g3
(I0
tp263
g5
tp264
Rp265
(I1
(I2
tp266
g12
I00
S'\x00\x00\x00\x00\x00\x00\x00\x00\x00\x00\x00\x00\x00\x00\x00\x00'
p267
tp268
bsVdhl
p269
g2
(g3
(I0
tp270
g5
tp271
Rp272
(I1
(I2
tp273
g12
I00
S'\x00\x00\x00\x00\x00\x00\x00\x00\x00\x00\x00\x00\x00\x00\x00\x00'
p274
tp275
bsVbp
p276
g2
(g3
(I0
tp277
g5
tp278
Rp279
(I1
(I2
tp280
g12
I00
S'\x00\x00\x00\x00\x00\x00\x00\x00\x00\x00\x00\x00\x00\x00\x00\x00'
p281
tp282
bsVbmw
p283
g2
(g3
(I0
tp284
g5
tp285
Rp286
(I1
(I2
tp287
g12
I00
S'\x00\x00\x00\x00\x00\x00\x00\x00\x00\x00\x00\x00\x00\x00\x00\x00'
p288
tp289
bsVholiday inn
p290
g2
(g3
(I0
tp291
g5
tp292
Rp293
(I1
(I2
tp294
g12
I00
S'\x00\x00\x00\x00\x00\x00\x00\x00\x00\x00\x00\x00\x00\x00\x00\x00'
p295
tp296
bsVusa tourism
p297
g2
(g3
(I0
tp298
g5
tp299
Rp300
(I1
(I2
tp301
g12
I00
S'\x00\x00\x00\x00\x00\x00\x00\x00\x00\x00\x00\x00\x00\x00\x00\x00'
p302
tp303
bsVroyal dutch shell
p304
g2
(g3
(I0
tp305
g5
tp306
Rp307
(I1
(I2
tp308
g12
I00
S'\x00\x00\x00\x00\x00\x00\x00\x00\x00\x00\x00\x00\x00\x00\x00\x00'
p309
tp310
bsVat&t
p311
g2
(g3
(I0
tp312
g5
tp313
Rp314
(I1
(I2
tp315
g12
I00
S'\x00\x00\x00\x00\x00\x00\x00\x00\x00\x00\x00\x00\x00\x00\x00\x00'
p316
tp317
bsVkia
p318
g2
(g3
(I0
tp319
g5
tp320
Rp321
(I1
(I2
tp322
g12
I00
S'\x00\x00\x00\x00\x00\x00\x00\x00\x00\x00\x00\x00\x00\x00\x00\x00'
p323
tp324
bsVcostco
p325
g2
(g3
(I0
tp326
g5
tp327
Rp328
(I1
(I2
tp329
g12
I00
S'\x00\x00\x00\x00\x00\x00\x00\x00\x00\x00\x00\x00\x00\x00\x00\x00'
p330
tp331
bsVtarget
p332
g2
(g3
(I0
tp333
g5
tp334
Rp335
(I1
(I2
tp336
g12
I00
S'\x00\x00\x00\x00\x00\x00\x00\x00\x00\x00\x00\x00\x00\x00\x00\x00'
p337
tp338
bsVfiat
p339
g2
(g3
(I0
tp340
g5
tp341
Rp342
(I1
(I2
tp343
g12
I00
S'\x00\x00\x00\x00\x00\x00\x00\x00\x00\x00\x00\x00\x00\x00\x00\x00'
p344
tp345
bsVibm
p346
g2
(g3
(I0
tp347
g5
tp348
Rp349
(I1
(I2
tp350
g12
I00
S'\x00\x00\x00\x00\x00\x00\x00\x00\x00\x00\x00\x00\x00\x00\x00\x00'
p351
tp352
bsVyelp
p353
g2
(g3
(I0
tp354
g5
tp355
Rp356
(I1
(I2
tp357
g12
I00
S'\x00\x00\x00\x00\x00\x00\x00\x00\x00\x00\x00\x00\x00\x00\x00\x00'
p358
tp359
bsVsamsung
p360
g2
(g3
(I0
tp361
g5
tp362
Rp363
(I1
(I2
tp364
g12
I00
S'\x00\x00\x00\x00\x00\x00\x00\x00\x00\x00\x00\x00\x00\x00\x00\x00'
p365
tp366
bsVuk tourism
p367
g2
(g3
(I0
tp368
g5
tp369
Rp370
(I1
(I2
tp371
g12
I00
S'\x00\x00\x00\x00\x00\x00\x00\x00\x00\x00\x00\x00\x00\x00\x00\x00'
p372
tp373
bsVnetflix
p374
g2
(g3
(I0
tp375
g5
tp376
Rp377
(I1
(I2
tp378
g12
I00
S'\x00\x00\x00\x00\x00\x00\x00\x00\x00\x00\x00\x00\x00\x00\x00\x00'
p379
tp380
bsVtoyota
p381
g2
(g3
(I0
tp382
g5
tp383
Rp384
(I1
(I2
tp385
g12
I00
S'\x00\x00\x00\x00\x00\x00\x00\x00\x00\x00\x00\x00\x00\x00\x00\x00'
p386
tp387
bsVbudget
p388
g2
(g3
(I0
tp389
g5
tp390
Rp391
(I1
(I2
tp392
g12
I00
S'\x00\x00\x00\x00\x00\x00\x00\x00\x00\x00\x00\x00\x00\x00\x00\x00'
p393
tp394
bsVmicrosoft
p395
g2
(g3
(I0
tp396
g5
tp397
Rp398
(I1
(I2
tp399
g12
I00
S'\x00\x00\x00\x00\x00\x00\x00\x00\x00\x00\x00\x00\x00\x00\x00\x00'
p400
tp401
bsVcisco
p402
g2
(g3
(I0
tp403
g5
tp404
Rp405
(I1
(I2
tp406
g12
I00
S'\x00\x00\x00\x00\x00\x00\x00\x00\x00\x00\x00\x00\x00\x00\x00\x00'
p407
tp408
bsVchina tourism
p409
g2
(g3
(I0
tp410
g5
tp411
Rp412
(I1
(I2
tp413
g12
I00
S'\x00\x00\x00\x00\x00\x00\x00\x00\x00\x00\x00\x00\x00\x00\x00\x00'
p414
tp415
bsVemirates
p416
g2
(g3
(I0
tp417
g5
tp418
Rp419
(I1
(I2
tp420
g12
I00
S'\x00\x00\x00\x00\x00\x00\x00\x00\x00\x00\x00\x00\x00\x00\x00\x00'
p421
tp422
bsVturkish airlines
p423
g2
(g3
(I0
tp424
g5
tp425
Rp426
(I1
(I2
tp427
g12
I00
S'\x00\x00\x00\x00\x00\x00\x00\x00\x00\x00\x00\x00\x00\x00\x00\x00'
p428
tp429
bsVchina national petroleum corporation
p430
g2
(g3
(I0
tp431
g5
tp432
Rp433
(I1
(I2
tp434
g12
I00
S'\x00\x00\x00\x00\x00\x00\x00\x00\x00\x00\x00\x00\x00\x00\x00\x00'
p435
tp436
bsVmakemytrip
p437
g2
(g3
(I0
tp438
g5
tp439
Rp440
(I1
(I2
tp441
g12
I00
S'\x00\x00\x00\x00\x00\x00\x00\x00\x00\x00\x00\x00\x00\x00\x00\x00'
p442
tp443
bsVfacebook
p444
g2
(g3
(I0
tp445
g5
tp446
Rp447
(I1
(I2
tp448
g12
I00
S'\x00\x00\x00\x00\x00\x00\x00\x00\x00\x00\x00\x00\x00\x00\x00\x00'
p449
tp450
bsVmarriott
p451
g2
(g3
(I0
tp452
g5
tp453
Rp454
(I1
(I2
tp455
g12
I00
S'\x00\x00\x00\x00\x00\x00\x00\x00\x00\x00\x00\x00\x00\x00\x00\x00'
p456
tp457
bsVbest buy
p458
g2
(g3
(I0
tp459
g5
tp460
Rp461
(I1
(I2
tp462
g12
I00
S'\x00\x00\x00\x00\x00\x00\x00\x00\x00\x00\x00\x00\x00\x00\x00\x00'
p463
tp464
bsVhonda
p465
g2
(g3
(I0
tp466
g5
tp467
Rp468
(I1
(I2
tp469
g12
I00
S'\x00\x00\x00\x00\x00\x00\x00\x00\x00\x00\x00\x00\x00\x00\x00\x00'
p470
tp471
bsVups
p472
g2
(g3
(I0
tp473
g5
tp474
Rp475
(I1
(I2
tp476
g12
I00
S'\x00\x00\x00\x00\x00\x00\x00\x00\x00\x00\x00\x00\x00\x00\x00\x00'
p477
tp478
bsVflipkart
p479
g2
(g3
(I0
tp480
g5
tp481
Rp482
(I1
(I2
tp483
g12
I00
S'\x00\x00\x00\x00\x00\x00\x00\x00\x00\x00\x00\x00\x00\x00\x00\x00'
p484
tp485
bs.(dp0
Vunited airlines
p1
(dp2
Vunited
p3
F1.0
sVflight
p4
F2.0
sVservice
p5
F0.5
sVusa
p6
F1.0
sVairlines
p7
F1.0
sVaircraft
p8
F0.5
sVairline
p9
F1.5
sVticket
p10
F1.0
ssVusps
p11
(dp12
Vpostage
p13
F0.5
sVlogistics
p14
F2.0
sVmanagement
p15
F0.5
sVtransportation
p16
F0.5
sVservice
p17
F0.5
sVpackage
p18
F2.0
sVusps
p19
F1.0
sVsystem
p20
F0.5
sVsend
p21
F1.0
sVdelivery
p22
F1.5
sVsupply
p23
F0.5
sVmail
p24
F1.5
sVpost
p25
F1.0
ssVexxon mobil
p26
(dp27
Vuse
p28
F0.5
sVexxon
p29
F1.0
sVgas
p30
F0.5
sVenergy
p31
F0.5
sVgasoline
p32
F1.5
sVoil
p33
F2.0
sVimp
p34
F0.5
sVgal
p35
F0.5
sVethanol
p36
F0.5
sVoils
p37
F0.5
sVfuel
p38
F2.5
sVmobil
p39
F1.0
sVoctane
p40
F0.5
ssVhome depot
p41
(dp42
Vhardware
p43
F1.0
sVhome
p44
F2.0
sVneed
p45
F1.0
sVdepot
p46
F1.0
sVsupplies
p47
F1.0
ssVfrance tourism
p48
(dp49
Vfamily
p50
F0.5
sVrelax
p51
F1.0
sVwork
p52
F0.5
sVvacation
p53
F1.5
sVfrench
p54
F1.0
sVfrance
p55
F1.0
sVtime
p56
F0.5
sVholiday
p57
F2.0
sVtourism
p58
F2.0
sVday
p59
F0.5
ssVold navy
p60
(dp61
Vbuy
p62
F1.0
sVold
p63
F1.0
sVcheap
p64
F1.0
sVnavy
p65
F1.0
sVclothing
p66
F1.0
sVclothes
p67
F1.0
ssVadobe
p68
(dp69
Vphotoshop
p70
F1.5
sVadobe
p71
F1.5
sVtool
p72
F0.5
sVmultimedia
p73
F1.0
sVus
p74
F0.5
sVcreative
p75
F1.0
sVmotion
p76
F0.5
sVanimation
p77
F1.5
sVediting
p78
F1.0
sVimage
p79
F0.5
sVfilm
p80
F0.5
ssVexpedia
p81
(dp82
Vfamily
p83
F0.5
sVpeople
p84
F0.5
sVcheap
p85
F1.0
sVrent
p86
F1.0
sVinsurance
p87
F0.5
sVrental
p88
F0.5
sVtravel
p89
F0.5
sVvacation
p90
F1.5
sVbook
p91
F2.0
sVholiday
p92
F3.0
sVexpedia
p93
F1.0
sVflight
p94
F1.0
sVtourist
p95
F0.5
sVrelax
p96
F1.0
sVcompany
p97
F0.5
sVhotel
p98
F1.0
sVtourism
p99
F2.0
sVday
p100
F0.5
sVdubai
p101
F1.0
sVcar
p102
F1.5
sVwork
p103
F0.5
sVtour
p104
F1.0
sVtime
p105
F0.5
ssVhilton
p106
(dp107
Vroom
p108
F1.0
sVservice
p109
F0.5
sVhotel
p110
F2.5
sVbook
p111
F1.0
sVhilton
p112
F1.0
sVbuild
p113
F0.5
ssVvirgin mobile
p114
(dp115
Vwireless
p116
F1.5
sVhigh
p117
F1.0
sVuse
p118
F1.5
sVsmartphone
p119
F1.5
sVservice
p120
F0.5
sVphone
p121
F2.0
sVmobile
p122
F5.5
sVdatum
p123
F0.5
sVaccess
p124
F0.5
sVcheap
p125
F2.0
sVcell
p126
F1.0
sVvirgin
p127
F1.0
sVradio
p128
F0.5
sVplan
p129
F2.0
sVinternet
p130
F1.5
sVcommunication
p131
F0.5
sVspeed
p132
F1.0
sVbroadband
p133
F0.5
ssVskype
p134
(dp135
Vconference
p136
F2.5
sVuse
p137
F1.0
sVservice
p138
F0.5
sVphone
p139
F0.5
sVsystem
p140
F1.0
sVvideophone
p141
F1.0
sVcall
p142
F2.5
sVskype
p143
F1.0
sVvideo
p144
F3.0
sVtechnology
p145
F1.0
ssVsears
p146
(dp147
Vgoods
p148
F0.5
sVappliance
p149
F1.5
sVbed
p150
F1.0
sVbath
p151
F1.0
sVmachine
p152
F0.5
sVsears
p153
F1.0
sVwear
p154
F0.5
sVhome
p155
F1.5
sVbeyond
p156
F1.0
sVclothing
p157
F2.0
sVclothes
p158
F0.5
ssVspain tourism
p159
(dp160
Vfamily
p161
F0.5
sVrelax
p162
F1.0
sVwork
p163
F0.5
sVvacation
p164
F1.5
sVtime
p165
F0.5
sVspanish
p166
F1.0
sVholiday
p167
F2.0
sVtourism
p168
F2.0
sVday
p169
F0.5
sVspain
p170
F1.0
ssVmcdonalds
p171
(dp172
Vsurname
p173
F0.5
sVcentury
p174
F0.5
sVfood
p175
F0.5
sVrestaurant
p176
F1.5
sVjan
p177
F0.5
sVburger
p178
F2.0
sVplace
p179
F1.0
sVdutch
p180
F0.5
sVmcdonalds
p181
F1.0
sVshake
p182
F1.0
sVeat
p183
F1.0
ssVfedex
p184
(dp185
Vlogistics
p186
F2.0
sVmanagement
p187
F0.5
sVtransportation
p188
F0.5
sVpackage
p189
F2.0
sVsupply
p190
F0.5
sVsend
p191
F1.0
sVfedex
p192
F1.0
sVdelivery
p193
F1.0
ssVvolkswagen group
p194
(dp195
Vgroup
p196
F1.0
sVautomobile
p197
F1.0
sVbenz
p198
F1.0
sVvolkswagen
p199
F1.0
sVvehicle
p200
F1.0
sVcar
p201
F2.0
ssVapple
p202
(dp203
Vipad
p204
F1.5
sVuse
p205
F0.5
sVsmartphone
p206
F0.5
sVapple
p207
F2.5
sVphone
p208
F3.0
sVgeneration
p209
F0.5
sVscreen
p210
F1.0
sVbell
p211
F0.5
sVios
p212
F0.5
sVtransmitter
p213
F0.5
sVtelephone
p214
F0.5
sVapplication
p215
F0.5
sVdevice
p216
F0.5
sViphone
p217
F1.5
sVmobile
p218
F0.5
sVicloud
p219
F1.5
sVmodel
p220
F0.5
sVline
p221
F0.5
sVsmart
p222
F1.0
sVuser
p223
F0.5
ssVitaly tourism
p224
(dp225
Vitaly
p226
F1.0
sVfamily
p227
F0.5
sVrelax
p228
F1.0
sVwork
p229
F0.5
sVvacation
p230
F1.5
sVtime
p231
F0.5
sVholiday
p232
F2.0
sVtourism
p233
F2.0
sVday
p234
F0.5
sVitalian
p235
F1.0
ssVa-lawyers
p236
(dp237
Vaccident
p238
F2.0
sVcrash
p239
F2.0
sVautomobile
p240
F1.0
sVdriver
p241
F0.5
sVa-lawyer
p242
F1.0
sVcollision
p243
F0.5
sVtrauma
p244
F0.5
sVvehicle
p245
F0.5
sVtraffic
p246
F0.5
sVmodel
p247
F1.0
sVinjury
p248
F2.5
sVcause
p249
F0.5
sVroad
p250
F0.5
ssVglassdoor
p251
(dp252
Vinternship
p253
F1.5
sVpay
p254
F0.5
sVintern
p255
F0.5
sVjob
p256
F2.0
sVglassdoor
p257
F1.0
sVstudent
p258
F0.5
sVsoftware
p259
F1.0
ssVt-mobile
p260
(dp261
Vcell
p262
F1.0
sVuse
p263
F1.5
sVsmartphone
p264
F1.5
sVservice
p265
F0.5
sVmobile
p266
F4.5
sVcommunication
p267
F0.5
sVaccess
p268
F0.5
sVcheap
p269
F2.0
sVdatum
p270
F0.5
sVt-mobile
p271
F1.0
sVwireless
p272
F1.5
sVphone
p273
F2.0
sVhigh
p274
F1.0
sVradio
p275
F0.5
sVplan
p276
F2.0
sVinternet
p277
F1.5
sVspeed
p278
F1.0
sVbroadband
p279
F0.5
ssVmalaysia airlines
p280
(dp281
Vmalaysium
p282
F1.0
sVflight
p283
F2.0
sVservice
p284
F0.5
sVmalaysia
p285
F1.0
sVaircraft
p286
F0.5
sVairline
p287
F2.5
sVticket
p288
F1.0
ssVcomcast
p289
(dp290
Vaccess
p291
F0.5
sVservice
p292
F0.5
sVbroadband
p293
F0.5
sVdatum
p294
F0.5
sVhigh
p295
F2.0
sVcomcast
p296
F2.0
sVinternet
p297
F1.5
sVspeed
p298
F2.0
ssVshell
p299
(dp300
Vuse
p301
F0.5
sVshell
p302
F1.0
sVgas
p303
F0.5
sVenergy
p304
F0.5
sVgasoline
p305
F1.5
sVoil
p306
F2.0
sVimp
p307
F0.5
sVgal
p308
F0.5
sVethanol
p309
F0.5
sVoils
p310
F0.5
sVfuel
p311
F2.5
sVoctane
p312
F0.5
ssVchevron corporation
p313
(dp314
Vuse
p315
F0.5
sVoil
p316
F2.0
sVethanol
p317
F0.5
sVcorporation
p318
F1.0
sVenergy
p319
F0.5
sVgasoline
p320
F1.5
sVgas
p321
F0.5
sVimp
p322
F0.5
sVgal
p323
F0.5
sVchevron
p324
F1.0
sVoils
p325
F0.5
sVfuel
p326
F2.5
sVoctane
p327
F0.5
ssVapplebees
p328
(dp329
Vcheese
p330
F0.5
sVcoffee
p331
F0.5
sVapplebee
p332
F2.0
sVcentury
p333
F0.5
sVfood
p334
F0.5
sVmenu
p335
F1.0
sVrestaurant
p336
F1.5
sVmilk
p337
F0.5
sVplace
p338
F1.0
sVbreakfast
p339
F1.5
sVeat
p340
F1.0
sVbread
p341
F0.5
ssVavis
p342
(dp343
Vcar
p344
F3.0
sVcompany
p345
F1.0
sVavis
p346
F1.0
sVrental
p347
F2.0
sVinsurance
p348
F1.0
sVrent
p349
F1.0
ssVpaypal
p350
(dp351
Vpay
p352
F1.0
sVpaypal
p353
F1.0
sVaccept
p354
F1.0
sVcredit
p355
F2.0
sVeasy
p356
F1.0
sVonline
p357
F2.0
sVpayment
p358
F1.0
sVcard
p359
F2.0
ssVtripadvisor
p360
(dp361
Vfamily
p362
F0.5
sVpeople
p363
F0.5
sVcheap
p364
F1.0
sVrent
p365
F1.0
sVtripadvisor
p366
F1.0
sVinsurance
p367
F0.5
sVrental
p368
F0.5
sVtravel
p369
F0.5
sVvacation
p370
F1.5
sVbook
p371
F2.0
sVholiday
p372
F3.0
sVflight
p373
F1.0
sVtourist
p374
F0.5
sVrelax
p375
F1.0
sVcompany
p376
F0.5
sVhotel
p377
F1.0
sVtourism
p378
F2.0
sVday
p379
F0.5
sVdubai
p380
F1.0
sVcar
p381
F1.5
sVwork
p382
F0.5
sVtour
p383
F1.0
sVtime
p384
F0.5
ssVlexmark
p385
(dp386
Vprint
p387
F1.0
sVlexmark
p388
F1.0
sVcartridge
p389
F1.0
sVprinter
p390
F1.0
sVink
p391
F1.0
ssVhp
p392
(dp393
Vmanufacture
p394
F0.5
sVprinter
p395
F1.5
sVcomputer
p396
F1.0
sVcartridge
p397
F1.0
sVbusiness
p398
F1.0
sVhp
p399
F1.0
sVmaterial
p400
F0.5
sVserver
p401
F1.0
sVproduction
p402
F0.5
sVprinting
p403
F1.5
sVtoner
p404
F1.0
sVbuy
p405
F1.0
sV3d
p406
F1.0
ssVnokia
p407
(dp408
Vcell
p409
F1.0
sVuse
p410
F1.5
sVword
p411
F0.5
sVnetwork
p412
F0.5
sVverbal
p413
F0.5
sVbell
p414
F0.5
sVmobile
p415
F3.0
sVcommunication
p416
F1.5
sVnokia
p417
F1.0
sVtransmitter
p418
F0.5
sVtelephone
p419
F0.5
sVaccess
p420
F0.5
sVphone
p421
F4.0
sVuser
p422
F0.5
sVinternet
p423
F1.5
sVmessage
p424
F0.5
sVline
p425
F0.5
ssVatlassian
p426
(dp427
Vdevelopment
p428
F1.5
sVmanagement
p429
F1.0
sVprocess
p430
F0.5
sVagile
p431
F1.0
sVcollaboration
p432
F1.0
sVatlassian
p433
F1.0
sVengineering
p434
F0.5
sVsoftware
p435
F4.0
ssVford
p436
(dp437
Vautomobile
p438
F1.0
sVbenz
p439
F1.0
sVvehicle
p440
F1.0
sVcar
p441
F2.0
sVford
p442
F1.0
ssVdominos
p443
(dp444
Vcheese
p445
F0.5
sVcentury
p446
F0.5
sVfood
p447
F0.5
sVrestaurant
p448
F1.5
sVcrust
p449
F0.5
sVwing
p450
F1.0
sVdominos
p451
F1.0
sVplace
p452
F1.0
sVdough
p453
F0.5
sVchicken
p454
F1.0
sVeat
p455
F1.0
sVpizza
p456
F2.0
ssVlufthansa
p457
(dp458
Vflight
p459
F2.0
sVservice
p460
F0.5
sVlufthansa
p461
F1.0
sVaircraft
p462
F0.5
sVgermany
p463
F1.0
sVairline
p464
F1.5
sVticket
p465
F1.0
ssVamazon
p466
(dp467
Vprime
p468
F1.5
sVweb
p469
F1.5
sVbuy
p470
F1.0
sVcentury
p471
F0.5
sVdeal
p472
F0.5
sVservice
p473
F1.0
sVpackage
p474
F1.0
sVonline
p475
F1.0
sVmedia
p476
F0.5
sVprinting
p477
F0.5
sVdelivery
p478
F1.0
sVstreaming
p479
F1.0
sVamazon
p480
F1.5
sVbook
p481
F1.5
sVvideo
p482
F3.0
sVpaper
p483
F0.5
sVinternet
p484
F0.5
sVservices
p485
F1.0
sVstream
p486
F0.5
sVwsdl
p487
F0.5
sVcontent
p488
F0.5
ssVdhl
p489
(dp490
Vlogistics
p491
F2.0
sVdhl
p492
F1.0
sVtransportation
p493
F0.5
sVpackage
p494
F2.0
sVsupply
p495
F0.5
sVsend
p496
F1.0
sVdelivery
p497
F1.0
sVmanagement
p498
F0.5
ssVbp
p499
(dp500
Vuse
p501
F0.5
sVoil
p502
F2.0
sVgas
p503
F0.5
sVenergy
p504
F0.5
sVgasoline
p505
F1.5
sVimp
p506
F0.5
sVgal
p507
F0.5
sVbp
p508
F1.0
sVethanol
p509
F0.5
sVoils
p510
F0.5
sVfuel
p511
F2.5
sVoctane
p512
F0.5
ssVbmw
p513
(dp514
Vautomobile
p515
F1.0
sVbenz
p516
F1.0
sVvehicle
p517
F1.0
sVbmw
p518
F1.0
sVcar
p519
F2.0
ssVholiday inn
p520
(dp521
Vfamily
p522
F0.5
sVpeople
p523
F0.5
sVcheap
p524
F1.0
sVinn
p525
F1.0
sVrent
p526
F1.0
sVinsurance
p527
F0.5
sVrental
p528
F0.5
sVtravel
p529
F0.5
sVvacation
p530
F1.5
sVbook
p531
F2.0
sVholiday
p532
F4.0
sVflight
p533
F1.0
sVtourist
p534
F0.5
sVrelax
p535
F1.0
sVcompany
p536
F0.5
sVhotel
p537
F1.0
sVtourism
p538
F2.0
sVday
p539
F0.5
sVdubai
p540
F1.0
sVcar
p541
F1.5
sVwork
p542
F0.5
sVtour
p543
F1.0
sVtime
p544
F0.5
ssVusa tourism
p545
(dp546
Vfamily
p547
F0.5
sVpeople
p548
F0.5
sVhawaii
p549
F1.5
sVstates
p550
F1.5
sVamericans
p551
F1.0
sVunited
p552
F2.0
sVcaribbean
p553
F0.5
sVusa
p554
F1.0
sVtravel
p555
F0.5
sVvacation
p556
F1.5
sVstate
p557
F1.0
sVsaint
p558
F0.5
sVholiday
p559
F2.0
sVnorth
p560
F0.5
sVtourist
p561
F0.5
sVrelax
p562
F1.0
sVtime
p563
F0.5
sVworld
p564
F1.0
sVamerica
p565
F1.0
sVtourism
p566
F3.0
sVday
p567
F0.5
sVpopulation
p568
F1.0
sVanchorage
p569
F0.5
sVregion
p570
F0.5
sVwork
p571
F0.5
sValaska
p572
F1.5
sVus
p573
F1.0
sVisland
p574
F1.0
sVislands
p575
F0.5
sVcarribean
p576
F1.0
ssVroyal dutch shell
p577
(dp578
Vuse
p579
F0.5
sVshell
p580
F1.0
sVgasoline
p581
F1.5
sVgal
p582
F0.5
sVoils
p583
F0.5
sVroyal
p584
F1.0
sVgas
p585
F0.5
sVimp
p586
F0.5
sVoil
p587
F2.0
sVethanol
p588
F0.5
sVdutch
p589
F1.0
sVfuel
p590
F2.5
sVenergy
p591
F0.5
sVoctane
p592
F0.5
ssVat&t
p593
(dp594
Vconference
p595
F1.0
sVcell
p596
F1.0
sVservice
p597
F0.5
sVprepaid
p598
F1.0
sVmobile
p599
F1.0
sVaccess
p600
F0.5
sVdatum
p601
F0.5
sVhigh
p602
F1.0
sVwireless
p603
F1.0
sVphone
p604
F1.0
sVatt
p605
F2.0
sVcall
p606
F1.0
sVplan
p607
F1.0
sVinternet
p608
F1.5
sVat&t
p609
F1.0
sVspeed
p610
F1.0
sVbroadband
p611
F0.5
ssVkia
p612
(dp613
Vautomobile
p614
F1.0
sVkia
p615
F1.0
sVbenz
p616
F1.0
sVvehicle
p617
F1.0
sVcar
p618
F2.0
ssVcostco
p619
(dp620
Vgoods
p621
F0.5
sVbusiness
p622
F1.5
sVwholesaler
p623
F0.5
sVwholesale
p624
F1.5
sVsale
p625
F0.5
sVowner
p626
F0.5
sVemployee
p627
F0.5
sVsmall
p628
F1.5
sVcostco
p629
F1.0
sVmerchandise
p630
F0.5
ssVtarget
p631
(dp632
Vdress
p633
F1.0
sVtarget
p634
F1.0
sVkid
p635
F1.0
ssVfiat
p636
(dp637
Vfiat
p638
F1.0
sVautomobile
p639
F1.0
sVbenz
p640
F1.0
sVvehicle
p641
F1.0
sVcar
p642
F2.0
ssVibm
p643
(dp644
Vprogram
p645
F0.5
sVibm
p646
F1.0
sVsolution
p647
F1.0
sVserver
p648
F1.0
sVmachine
p649
F0.5
sVjob
p650
F1.0
sVcomputer
p651
F1.5
sVmemory
p652
F0.5
sVresearch
p653
F1.0
sVsoftware
p654
F1.0
ssVyelp
p655
(dp656
Vrecommend
p657
F1.0
sVyelp
p658
F1.0
sVbusiness
p659
F2.0
sVcentury
p660
F0.5
sVfood
p661
F0.5
sVreview
p662
F1.0
sVrestaurant
p663
F1.5
sVonline
p664
F1.0
sVlocal
p665
F1.0
ssVsamsung
p666
(dp667
Vnote
p668
F2.0
sVtelevision
p669
F0.5
sVsmartphone
p670
F1.5
sVsamsung
p671
F4.0
sVtv
p672
F2.5
sVseries
p673
F0.5
sVimage
p674
F0.5
sVuse
p675
F1.0
sVjune
p676
F0.5
sVsystem
p677
F0.5
sVphone
p678
F2.0
sVcell
p679
F1.0
sVcolor
p680
F0.5
sVlcd
p681
F1.0
sVmobile
p682
F1.5
sVstylus
p683
F0.5
sVpen
p684
F0.5
sVandroid
p685
F1.0
sVgalaxy
p686
F2.0
ssVuk tourism
p687
(dp688
Vkingdom
p689
F0.5
sVunited
p690
F0.5
sVengland
p691
F0.5
sVireland
p692
F0.5
sVfamily
p693
F0.5
sVrelax
p694
F1.0
sVtravel
p695
F0.5
sVpeople
p696
F0.5
sVvacation
p697
F1.5
sVwork
p698
F0.5
sVuk
p699
F2.5
sVtime
p700
F0.5
sVholiday
p701
F2.0
sVtourism
p702
F3.0
sVday
p703
F0.5
sVtourist
p704
F0.5
ssVnetflix
p705
(dp706
Vmedia
p707
F0.5
sVstream
p708
F0.5
sVnetflix
p709
F1.0
sVmovie
p710
F2.0
sVinternet
p711
F0.5
sVwatch
p712
F1.0
sVcontent
p713
F0.5
sVstreaming
p714
F1.0
sVvideo
p715
F1.5
sVonline
p716
F2.0
ssVtoyota
p717
(dp718
Vvehicle
p719
F1.0
sVautomobile
p720
F1.0
sVbenz
p721
F1.0
sVtoyota
p722
F1.0
sVcar
p723
F2.0
ssVbudget
p724
(dp725
Vcar
p726
F3.0
sVcompany
p727
F1.0
sVbudget
p728
F1.0
sVrent
p729
F1.0
sVrental
p730
F2.0
sVinsurance
p731
F1.0
ssVmicrosoft
p732
(dp733
Vengine
p734
F1.5
sVweb
p735
F0.5
sVuse
p736
F0.5
sVsmartphone
p737
F1.5
sVoffice
p738
F1.5
sVphone
p739
F0.5
sVwindows
p740
F3.5
sVsearch
p741
F1.5
sVsystem
p742
F0.5
sVpocket
p743
F0.5
sVmobile
p744
F2.0
sVmac
p745
F0.5
sVversion
p746
F1.0
sVresult
p747
F0.5
sVdevice
p748
F0.5
sVoperate
p749
F0.5
sVmicrosoft
p750
F3.5
ssVcisco
p751
(dp752
Vcisco
p753
F1.0
sVdatum
p754
F1.5
sVhigh
p755
F1.0
sVcomputer
p756
F1.5
sVvideo
p757
F1.5
sVspeed
p758
F1.0
sVcloud
p759
F1.0
sVwan
p760
F1.5
sVuse
p761
F0.5
sVnetwork
p762
F1.5
sVservice
p763
F0.5
sVbroadband
p764
F0.5
sVtechnology
p765
F0.5
sVsystem
p766
F0.5
sVaccess
p767
F0.5
sVapplication
p768
F1.0
sVinternet
p769
F2.0
sVinclude
p770
F0.5
sVconferencing
p771
F1.0
sVwifi
p772
F1.0
sVvideophone
p773
F0.5
sVconnection
p774
F0.5
sVoptimization
p775
F1.5
sVrouter
p776
F1.0
ssVchina tourism
p777
(dp778
Vfamily
p779
F0.5
sVchinese
p780
F1.0
sVrelax
p781
F1.0
sVmount
p782
F0.5
sVwork
p783
F0.5
sVvacation
p784
F1.5
sVday
p785
F0.5
sVchina
p786
F1.5
sVtime
p787
F0.5
sVholiday
p788
F2.0
sVtourism
p789
F3.0
sVtravel
p790
F0.5
ssVemirates
p791
(dp792
Vflight
p793
F2.0
sVservice
p794
F0.5
sVaircraft
p795
F0.5
sVemirates
p796
F1.0
sVairline
p797
F1.5
sVticket
p798
F1.0
sVuae
p799
F1.0
ssVturkish airlines
p800
(dp801
Vturkey
p802
F1.0
sVflight
p803
F2.0
sVservice
p804
F0.5
sVturkish
p805
F1.0
sVaircraft
p806
F0.5
sVairline
p807
F2.5
sVticket
p808
F1.0
ssVchina national petroleum corporation
p809
(dp810
Vuse
p811
F0.5
sVoil
p812
F2.0
sVcorporation
p813
F1.0
sVnational
p814
F1.0
sVpetroleum
p815
F1.0
sVgas
p816
F0.5
sVimp
p817
F0.5
sVgal
p818
F0.5
sVchina
p819
F1.0
sVethanol
p820
F0.5
sVoils
p821
F0.5
sVfuel
p822
F2.5
sVgasoline
p823
F1.5
sVenergy
p824
F0.5
sVoctane
p825
F0.5
ssVmakemytrip
p826
(dp827
Vfamily
p828
F0.5
sVpeople
p829
F0.5
sVcheap
p830
F1.0
sVrent
p831
F1.0
sVinsurance
p832
F0.5
sVrental
p833
F0.5
sVtravel
p834
F0.5
sVvacation
p835
F1.5
sVbook
p836
F2.0
sVholiday
p837
F3.0
sVflight
p838
F1.0
sVtourist
p839
F0.5
sVrelax
p840
F1.0
sVcompany
p841
F0.5
sVhotel
p842
F1.0
sVmakemytrip
p843
F1.0
sVtourism
p844
F2.0
sVday
p845
F0.5
sVdubai
p846
F1.0
sVcar
p847
F1.5
sVwork
p848
F0.5
sVtour
p849
F1.0
sVtime
p850
F0.5
ssVfacebook
p851
(dp852
Vpeople
p853
F1.5
sVmedia
p854
F1.5
sVonline
p855
F1.5
sVreach
p856
F1.0
sVfacebook
p857
F1.0
sVconnect
p858
F2.0
sVsocial
p859
F1.5
sVfriend
p860
F2.0
sVuser
p861
F0.5
ssVmarriott
p862
(dp863
Vroom
p864
F1.0
sVservice
p865
F0.5
sVhotel
p866
F2.5
sVbook
p867
F1.0
sVbuild
p868
F0.5
sVmarriott
p869
F1.0
ssVbest buy
p870
(dp871
Velectronics
p872
F1.0
sVbuy
p873
F3.0
sVgadget
p874
F1.0
sVbest
p875
F1.0
ssVhonda
p876
(dp877
Vvehicle
p878
F1.0
sVautomobile
p879
F1.0
sVhonda
p880
F1.0
sVbenz
p881
F1.0
sVcar
p882
F2.0
ssVups
p883
(dp884
Vlogistics
p885
F2.0
sVmanagement
p886
F0.5
sVtransportation
p887
F0.5
sVpackage
p888
F2.0
sVsupply
p889
F0.5
sVsend
p890
F1.0
sVdelivery
p891
F1.0
sVups
p892
F1.0
ssVflipkart
p893
(dp894
Vproduct
p895
F1.0
sVbuy
p896
F1.0
sVdelivery
p897
F1.0
sVonline
p898
F2.0
sVmarket
p899
F1.0
sVflipkart
p900
F1.0
ss.(dp0
Vunited airlines
p1
(dp2
Vunited
p3
I00
sVflight
p4
I00
sVservice
p5
I00
sVusa
p6
I00
sVairlines
p7
I00
sVaircraft
p8
I00
sVairline
p9
I00
sVticket
p10
I00
ssVusps
p11
(dp12
Vpostage
p13
I00
sVlogistics
p14
I00
sVmanagement
p15
I00
sVtransportation
p16
I00
sVservice
p17
I00
sVpackage
p18
I00
sVusps
p19
I00
sVsystem
p20
I00
sVsend
p21
I00
sVdelivery
p22
I00
sVsupply
p23
I00
sVmail
p24
I00
sVpost
p25
I00
ssVexxon mobil
p26
(dp27
Vuse
p28
I00
sVexxon
p29
I00
sVgas
p30
I00
sVenergy
p31
I00
sVgasoline
p32
I00
sVoil
p33
I00
sVimp
p34
I00
sVgal
p35
I00
sVethanol
p36
I00
sVoils
p37
I00
sVfuel
p38
I00
sVmobil
p39
I00
sVoctane
p40
I00
ssVhome depot
p41
(dp42
Vhardware
p43
I00
sVhome
p44
I00
sVneed
p45
I00
sVdepot
p46
I00
sVsupplies
p47
I00
ssVfrance tourism
p48
(dp49
Vfamily
p50
I00
sVrelax
p51
I01
sVwork
p52
I00
sVvacation
p53
I00
sVfrench
p54
I00
sVfrance
p55
I00
sVtime
p56
I00
sVholiday
p57
I00
sVtourism
p58
I00
sVday
p59
I00
ssVold navy
p60
(dp61
Vbuy
p62
I00
sVold
p63
I00
sVcheap
p64
I00
sVnavy
p65
I00
sVclothing
p66
I00
sVclothes
p67
I00
ssVadobe
p68
(dp69
Vphotoshop
p70
I00
sVadobe
p71
I00
sVtool
p72
I00
sVmultimedia
p73
I00
sVus
p74
I00
sVcreative
p75
I00
sVmotion
p76
I00
sVanimation
p77
I00
sVediting
p78
I00
sVimage
p79
I00
sVfilm
p80
I00
ssVexpedia
p81
(dp82
Vfamily
p83
I00
sVpeople
p84
I00
sVcheap
p85
I00
sVrent
p86
I00
sVinsurance
p87
I00
sVrental
p88
I00
sVtravel
p89
I00
sVvacation
p90
I00
sVbook
p91
I00
sVholiday
p92
I00
sVexpedia
p93
I00
sVflight
p94
I00
sVtourist
p95
I00
sVrelax
p96
I01
sVcompany
p97
I00
sVhotel
p98
I00
sVtourism
p99
I00
sVday
p100
I00
sVdubai
p101
I00
sVcar
p102
I00
sVwork
p103
I00
sVtour
p104
I00
sVtime
p105
I00
ssVhilton
p106
(dp107
Vroom
p108
I00
sVservice
p109
I00
sVhotel
p110
I00
sVbook
p111
I00
sVhilton
p112
I00
sVbuild
p113
I00
ssVvirgin mobile
p114
(dp115
Vwireless
p116
I00
sVhigh
p117
I00
sVuse
p118
I00
sVsmartphone
p119
I00
sVservice
p120
I00
sVphone
p121
I00
sVmobile
p122
I00
sVdatum
p123
I00
sVaccess
p124
I00
sVcheap
p125
I00
sVcell
p126
I00
sVvirgin
p127
I00
sVradio
p128
I00
sVplan
p129
I00
sVinternet
p130
I00
sVcommunication
p131
I00
sVspeed
p132
I00
sVbroadband
p133
I00
ssVskype
p134
(dp135
Vconference
p136
I00
sVuse
p137
I00
sVservice
p138
I00
sVphone
p139
I00
sVsystem
p140
I00
sVvideophone
p141
I00
sVcall
p142
I00
sVskype
p143
I00
sVvideo
p144
I00
sVtechnology
p145
I00
ssVsears
p146
(dp147
Vgoods
p148
I00
sVappliance
p149
I00
sVbed
p150
I00
sVbath
p151
I00
sVmachine
p152
I00
sVsears
p153
I00
sVwear
p154
I00
sVhome
p155
I00
sVbeyond
p156
I00
sVclothing
p157
I00
sVclothes
p158
I00
ssVspain tourism
p159
(dp160
Vfamily
p161
I00
sVrelax
p162
I01
sVwork
p163
I00
sVvacation
p164
I00
sVtime
p165
I00
sVspanish
p166
I00
sVholiday
p167
I00
sVtourism
p168
I00
sVday
p169
I00
sVspain
p170
I00
ssVmcdonalds
p171
(dp172
Vsurname
p173
I00
sVcentury
p174
I00
sVfood
p175
I00
sVrestaurant
p176
I00
sVjan
p177
I00
sVburger
p178
I00
sVplace
p179
I00
sVdutch
p180
I00
sVmcdonalds
p181
I00
sVshake
p182
I00
sVeat
p183
I00
ssVfedex
p184
(dp185
Vlogistics
p186
I00
sVmanagement
p187
I00
sVtransportation
p188
I00
sVpackage
p189
I00
sVsupply
p190
I00
sVsend
p191
I00
sVfedex
p192
I00
sVdelivery
p193
I00
ssVvolkswagen group
p194
(dp195
Vgroup
p196
I00
sVautomobile
p197
I00
sVbenz
p198
I00
sVvolkswagen
p199
I00
sVvehicle
p200
I00
sVcar
p201
I00
ssVapple
p202
(dp203
Vipad
p204
I00
sVuse
p205
I00
sVsmartphone
p206
I00
sVapple
p207
I00
sVphone
p208
I00
sVgeneration
p209
I00
sVscreen
p210
I00
sVbell
p211
I00
sVios
p212
I00
sVtransmitter
p213
I00
sVtelephone
p214
I00
sVapplication
p215
I00
sVdevice
p216
I00
sViphone
p217
I00
sVmobile
p218
I00
sVicloud
p219
I00
sVmodel
p220
I00
sVline
p221
I00
sVsmart
p222
I00
sVuser
p223
I00
ssVitaly tourism
p224
(dp225
Vitaly
p226
I00
sVfamily
p227
I00
sVrelax
p228
I01
sVwork
p229
I00
sVvacation
p230
I00
sVtime
p231
I00
sVholiday
p232
I00
sVtourism
p233
I00
sVday
p234
I00
sVitalian
p235
I00
ssVa-lawyers
p236
(dp237
Vaccident
p238
I01
sVcrash
p239
I01
sVautomobile
p240
I01
sVdriver
p241
I01
sVa-lawyer
p242
I00
sVcollision
p243
I01
sVtrauma
p244
I01
sVvehicle
p245
I01
sVtraffic
p246
I01
sVmodel
p247
I01
sVinjury
p248
I01
sVcause
p249
I01
sVroad
p250
I01
ssVglassdoor
p251
(dp252
Vinternship
p253
I00
sVpay
p254
I00
sVintern
p255
I00
sVjob
p256
I00
sVglassdoor
p257
I00
sVstudent
p258
I00
sVsoftware
p259
I00
ssVt-mobile
p260
(dp261
Vcell
p262
I00
sVuse
p263
I00
sVsmartphone
p264
I00
sVservice
p265
I00
sVmobile
p266
I00
sVcommunication
p267
I00
sVaccess
p268
I00
sVcheap
p269
I00
sVdatum
p270
I00
sVt-mobile
p271
I00
sVwireless
p272
I00
sVphone
p273
I00
sVhigh
p274
I00
sVradio
p275
I00
sVplan
p276
I00
sVinternet
p277
I00
sVspeed
p278
I00
sVbroadband
p279
I00
ssVmalaysia airlines
p280
(dp281
Vmalaysium
p282
I00
sVflight
p283
I00
sVservice
p284
I00
sVmalaysia
p285
I00
sVaircraft
p286
I00
sVairline
p287
I00
sVticket
p288
I00
ssVcomcast
p289
(dp290
Vaccess
p291
I00
sVservice
p292
I00
sVbroadband
p293
I00
sVdatum
p294
I00
sVhigh
p295
I00
sVcomcast
p296
I00
sVinternet
p297
I00
sVspeed
p298
I00
ssVshell
p299
(dp300
Vuse
p301
I00
sVshell
p302
I00
sVgas
p303
I00
sVenergy
p304
I00
sVgasoline
p305
I00
sVoil
p306
I00
sVimp
p307
I00
sVgal
p308
I00
sVethanol
p309
I00
sVoils
p310
I00
sVfuel
p311
I00
sVoctane
p312
I00
ssVchevron corporation
p313
(dp314
Vuse
p315
I00
sVoil
p316
I00
sVethanol
p317
I00
sVcorporation
p318
I00
sVenergy
p319
I00
sVgasoline
p320
I00
sVgas
p321
I00
sVimp
p322
I00
sVgal
p323
I00
sVchevron
p324
I00
sVoils
p325
I00
sVfuel
p326
I00
sVoctane
p327
I00
ssVapplebees
p328
(dp329
Vcheese
p330
I00
sVcoffee
p331
I00
sVapplebee
p332
I00
sVcentury
p333
I00
sVfood
p334
I00
sVmenu
p335
I00
sVrestaurant
p336
I00
sVmilk
p337
I00
sVplace
p338
I00
sVbreakfast
p339
I00
sVeat
p340
I00
sVbread
p341
I00
ssVavis
p342
(dp343
Vcar
p344
I00
sVcompany
p345
I00
sVavis
p346
I00
sVrental
p347
I00
sVinsurance
p348
I00
sVrent
p349
I00
ssVpaypal
p350
(dp351
Vpay
p352
I00
sVpaypal
p353
I00
sVaccept
p354
I00
sVcredit
p355
I00
sVeasy
p356
I00
sVonline
p357
I00
sVpayment
p358
I00
sVcard
p359
I00
ssVtripadvisor
p360
(dp361
Vfamily
p362
I00
sVpeople
p363
I00
sVcheap
p364
I00
sVrent
p365
I00
sVtripadvisor
p366
I00
sVinsurance
p367
I00
sVrental
p368
I00
sVtravel
p369
I00
sVvacation
p370
I00
sVbook
p371
I00
sVholiday
p372
I00
sVflight
p373
I00
sVtourist
p374
I00
sVrelax
p375
I01
sVcompany
p376
I00
sVhotel
p377
I00
sVtourism
p378
I00
sVday
p379
I00
sVdubai
p380
I00
sVcar
p381
I00
sVwork
p382
I00
sVtour
p383
I00
sVtime
p384
I00
ssVlexmark
p385
(dp386
Vprint
p387
I00
sVlexmark
p388
I00
sVcartridge
p389
I00
sVprinter
p390
I00
sVink
p391
I00
ssVhp
p392
(dp393
Vmanufacture
p394
I00
sVprinter
p395
I00
sVcomputer
p396
I00
sVcartridge
p397
I00
sVbusiness
p398
I00
sVhp
p399
I00
sVmaterial
p400
I00
sVserver
p401
I00
sVproduction
p402
I00
sVprinting
p403
I00
sVtoner
p404
I00
sVbuy
p405
I00
sV3d
p406
I00
ssVnokia
p407
(dp408
Vcell
p409
I00
sVuse
p410
I00
sVword
p411
I00
sVnetwork
p412
I00
sVverbal
p413
I00
sVbell
p414
I00
sVmobile
p415
I00
sVcommunication
p416
I00
sVnokia
p417
I00
sVtransmitter
p418
I00
sVtelephone
p419
I00
sVaccess
p420
I00
sVphone
p421
I00
sVuser
p422
I00
sVinternet
p423
I00
sVmessage
p424
I00
sVline
p425
I00
ssVatlassian
p426
(dp427
Vdevelopment
p428
I00
sVmanagement
p429
I00
sVprocess
p430
I00
sVagile
p431
I00
sVcollaboration
p432
I00
sVatlassian
p433
I00
sVengineering
p434
I00
sVsoftware
p435
I00
ssVford
p436
(dp437
Vautomobile
p438
I00
sVbenz
p439
I00
sVvehicle
p440
I00
sVcar
p441
I00
sVford
p442
I00
ssVdominos
p443
(dp444
Vcheese
p445
I00
sVcentury
p446
I00
sVfood
p447
I00
sVrestaurant
p448
I00
sVcrust
p449
I00
sVwing
p450
I00
sVdominos
p451
I00
sVplace
p452
I00
sVdough
p453
I00
sVchicken
p454
I00
sVeat
p455
I00
sVpizza
p456
I00
ssVlufthansa
p457
(dp458
Vflight
p459
I00
sVservice
p460
I00
sVlufthansa
p461
I00
sVaircraft
p462
I00
sVgermany
p463
I00
sVairline
p464
I00
sVticket
p465
I00
ssVamazon
p466
(dp467
Vprime
p468
I00
sVweb
p469
I00
sVbuy
p470
I00
sVcentury
p471
I00
sVdeal
p472
I00
sVservice
p473
I00
sVpackage
p474
I00
sVonline
p475
I00
sVmedia
p476
I00
sVprinting
p477
I00
sVdelivery
p478
I00
sVstreaming
p479
I00
sVamazon
p480
I00
sVbook
p481
I00
sVvideo
p482
I00
sVpaper
p483
I00
sVinternet
p484
I00
sVservices
p485
I00
sVstream
p486
I00
sVwsdl
p487
I00
sVcontent
p488
I00
ssVdhl
p489
(dp490
Vlogistics
p491
I00
sVdhl
p492
I00
sVtransportation
p493
I00
sVpackage
p494
I00
sVsupply
p495
I00
sVsend
p496
I00
sVdelivery
p497
I00
sVmanagement
p498
I00
ssVbp
p499
(dp500
Vuse
p501
I00
sVoil
p502
I00
sVgas
p503
I00
sVenergy
p504
I00
sVgasoline
p505
I00
sVimp
p506
I00
sVgal
p507
I00
sVbp
p508
I00
sVethanol
p509
I00
sVoils
p510
I00
sVfuel
p511
I00
sVoctane
p512
I00
ssVbmw
p513
(dp514
Vautomobile
p515
I00
sVbenz
p516
I00
sVvehicle
p517
I00
sVbmw
p518
I00
sVcar
p519
I00
ssVholiday inn
p520
(dp521
Vfamily
p522
I00
sVpeople
p523
I00
sVcheap
p524
I00
sVinn
p525
I00
sVrent
p526
I00
sVinsurance
p527
I00
sVrental
p528
I00
sVtravel
p529
I00
sVvacation
p530
I00
sVbook
p531
I00
sVholiday
p532
I00
sVflight
p533
I00
sVtourist
p534
I00
sVrelax
p535
I01
sVcompany
p536
I00
sVhotel
p537
I00
sVtourism
p538
I00
sVday
p539
I00
sVdubai
p540
I00
sVcar
p541
I00
sVwork
p542
I00
sVtour
p543
I00
sVtime
p544
I00
ssVusa tourism
p545
(dp546
Vfamily
p547
I00
sVpeople
p548
I00
sVhawaii
p549
I00
sVstates
p550
I00
sVamericans
p551
I00
sVunited
p552
I00
sVcaribbean
p553
I00
sVusa
p554
I00
sVtravel
p555
I00
sVvacation
p556
I00
sVstate
p557
I00
sVsaint
p558
I00
sVholiday
p559
I00
sVnorth
p560
I00
sVtourist
p561
I00
sVrelax
p562
I01
sVtime
p563
I00
sVworld
p564
I00
sVamerica
p565
I00
sVtourism
p566
I00
sVday
p567
I00
sVpopulation
p568
I00
sVanchorage
p569
I00
sVregion
p570
I00
sVwork
p571
I00
sValaska
p572
I00
sVus
p573
I00
sVisland
p574
I00
sVislands
p575
I00
sVcarribean
p576
I00
ssVroyal dutch shell
p577
(dp578
Vuse
p579
I00
sVshell
p580
I00
sVgasoline
p581
I00
sVgal
p582
I00
sVoils
p583
I00
sVroyal
p584
I00
sVgas
p585
I00
sVimp
p586
I00
sVoil
p587
I00
sVethanol
p588
I00
sVdutch
p589
I00
sVfuel
p590
I00
sVenergy
p591
I00
sVoctane
p592
I00
ssVat&t
p593
(dp594
Vconference
p595
I00
sVcell
p596
I00
sVservice
p597
I00
sVprepaid
p598
I00
sVmobile
p599
I00
sVaccess
p600
I00
sVdatum
p601
I00
sVhigh
p602
I00
sVwireless
p603
I00
sVphone
p604
I00
sVatt
p605
I00
sVcall
p606
I00
sVplan
p607
I00
sVinternet
p608
I00
sVat&t
p609
I00
sVspeed
p610
I00
sVbroadband
p611
I00
ssVkia
p612
(dp613
Vautomobile
p614
I00
sVkia
p615
I00
sVbenz
p616
I00
sVvehicle
p617
I00
sVcar
p618
I00
ssVcostco
p619
(dp620
Vgoods
p621
I00
sVbusiness
p622
I00
sVwholesaler
p623
I00
sVwholesale
p624
I00
sVsale
p625
I00
sVowner
p626
I00
sVemployee
p627
I00
sVsmall
p628
I00
sVcostco
p629
I00
sVmerchandise
p630
I00
ssVtarget
p631
(dp632
Vdress
p633
I00
sVtarget
p634
I00
sVkid
p635
I00
ssVfiat
p636
(dp637
Vfiat
p638
I00
sVautomobile
p639
I00
sVbenz
p640
I00
sVvehicle
p641
I00
sVcar
p642
I00
ssVibm
p643
(dp644
Vprogram
p645
I00
sVibm
p646
I00
sVsolution
p647
I00
sVserver
p648
I00
sVmachine
p649
I00
sVjob
p650
I00
sVcomputer
p651
I00
sVmemory
p652
I00
sVresearch
p653
I00
sVsoftware
p654
I00
ssVyelp
p655
(dp656
Vrecommend
p657
I00
sVyelp
p658
I00
sVbusiness
p659
I00
sVcentury
p660
I00
sVfood
p661
I00
sVreview
p662
I00
sVrestaurant
p663
I00
sVonline
p664
I00
sVlocal
p665
I00
ssVsamsung
p666
(dp667
Vnote
p668
I00
sVtelevision
p669
I00
sVsmartphone
p670
I00
sVsamsung
p671
I00
sVtv
p672
I00
sVseries
p673
I00
sVimage
p674
I00
sVuse
p675
I00
sVjune
p676
I00
sVsystem
p677
I00
sVphone
p678
I00
sVcell
p679
I00
sVcolor
p680
I00
sVlcd
p681
I00
sVmobile
p682
I00
sVstylus
p683
I00
sVpen
p684
I00
sVandroid
p685
I00
sVgalaxy
p686
I00
ssVuk tourism
p687
(dp688
Vkingdom
p689
I00
sVunited
p690
I00
sVengland
p691
I00
sVireland
p692
I00
sVfamily
p693
I00
sVrelax
p694
I01
sVtravel
p695
I00
sVpeople
p696
I00
sVvacation
p697
I00
sVwork
p698
I00
sVuk
p699
I00
sVtime
p700
I00
sVholiday
p701
I00
sVtourism
p702
I00
sVday
p703
I00
sVtourist
p704
I00
ssVnetflix
p705
(dp706
Vmedia
p707
I00
sVstream
p708
I00
sVnetflix
p709
I00
sVmovie
p710
I00
sVinternet
p711
I00
sVwatch
p712
I00
sVcontent
p713
I00
sVstreaming
p714
I00
sVvideo
p715
I00
sVonline
p716
I00
ssVtoyota
p717
(dp718
Vvehicle
p719
I00
sVautomobile
p720
I00
sVbenz
p721
I00
sVtoyota
p722
I00
sVcar
p723
I00
ssVbudget
p724
(dp725
Vcar
p726
I00
sVcompany
p727
I00
sVbudget
p728
I00
sVrent
p729
I00
sVrental
p730
I00
sVinsurance
p731
I00
ssVmicrosoft
p732
(dp733
Vengine
p734
I00
sVweb
p735
I00
sVuse
p736
I00
sVsmartphone
p737
I00
sVoffice
p738
I00
sVphone
p739
I00
sVwindows
p740
I00
sVsearch
p741
I00
sVsystem
p742
I00
sVpocket
p743
I00
sVmobile
p744
I00
sVmac
p745
I00
sVversion
p746
I00
sVresult
p747
I00
sVdevice
p748
I00
sVoperate
p749
I00
sVmicrosoft
p750
I00
ssVcisco
p751
(dp752
Vcisco
p753
I00
sVdatum
p754
I00
sVhigh
p755
I00
sVcomputer
p756
I00
sVvideo
p757
I00
sVspeed
p758
I00
sVcloud
p759
I00
sVwan
p760
I00
sVuse
p761
I00
sVnetwork
p762
I00
sVservice
p763
I00
sVbroadband
p764
I00
sVtechnology
p765
I00
sVsystem
p766
I00
sVaccess
p767
I00
sVapplication
p768
I00
sVinternet
p769
I00
sVinclude
p770
I00
sVconferencing
p771
I00
sVwifi
p772
I00
sVvideophone
p773
I00
sVconnection
p774
I00
sVoptimization
p775
I00
sVrouter
p776
I00
ssVchina tourism
p777
(dp778
Vfamily
p779
I00
sVchinese
p780
I00
sVrelax
p781
I01
sVmount
p782
I00
sVwork
p783
I00
sVvacation
p784
I00
sVday
p785
I00
sVchina
p786
I00
sVtime
p787
I00
sVholiday
p788
I00
sVtourism
p789
I00
sVtravel
p790
I00
ssVemirates
p791
(dp792
Vflight
p793
I00
sVservice
p794
I00
sVaircraft
p795
I00
sVemirates
p796
I00
sVairline
p797
I00
sVticket
p798
I00
sVuae
p799
I00
ssVturkish airlines
p800
(dp801
Vturkey
p802
I00
sVflight
p803
I00
sVservice
p804
I00
sVturkish
p805
I00
sVaircraft
p806
I00
sVairline
p807
I00
sVticket
p808
I00
ssVchina national petroleum corporation
p809
(dp810
Vuse
p811
I00
sVoil
p812
I00
sVcorporation
p813
I00
sVnational
p814
I00
sVpetroleum
p815
I00
sVgas
p816
I00
sVimp
p817
I00
sVgal
p818
I00
sVchina
p819
I00
sVethanol
p820
I00
sVoils
p821
I00
sVfuel
p822
I00
sVgasoline
p823
I00
sVenergy
p824
I00
sVoctane
p825
I00
ssVmakemytrip
p826
(dp827
Vfamily
p828
I00
sVpeople
p829
I00
sVcheap
p830
I00
sVrent
p831
I00
sVinsurance
p832
I00
sVrental
p833
I00
sVtravel
p834
I00
sVvacation
p835
I00
sVbook
p836
I00
sVholiday
p837
I00
sVflight
p838
I00
sVtourist
p839
I00
sVrelax
p840
I01
sVcompany
p841
I00
sVhotel
p842
I00
sVmakemytrip
p843
I00
sVtourism
p844
I00
sVday
p845
I00
sVdubai
p846
I00
sVcar
p847
I00
sVwork
p848
I00
sVtour
p849
I00
sVtime
p850
I00
ssVfacebook
p851
(dp852
Vpeople
p853
I00
sVmedia
p854
I00
sVonline
p855
I00
sVreach
p856
I00
sVfacebook
p857
I00
sVconnect
p858
I00
sVsocial
p859
I00
sVfriend
p860
I00
sVuser
p861
I00
ssVmarriott
p862
(dp863
Vroom
p864
I00
sVservice
p865
I00
sVhotel
p866
I00
sVbook
p867
I00
sVbuild
p868
I00
sVmarriott
p869
I00
ssVbest buy
p870
(dp871
Velectronics
p872
I00
sVbuy
p873
I00
sVgadget
p874
I00
sVbest
p875
I00
ssVhonda
p876
(dp877
Vvehicle
p878
I00
sVautomobile
p879
I00
sVhonda
p880
I00
sVbenz
p881
I00
sVcar
p882
I00
ssVups
p883
(dp884
Vlogistics
p885
I00
sVmanagement
p886
I00
sVtransportation
p887
I00
sVpackage
p888
I00
sVsupply
p889
I00
sVsend
p890
I00
sVdelivery
p891
I00
sVups
p892
I00
ssVflipkart
p893
(dp894
Vproduct
p895
I00
sVbuy
p896
I00
sVdelivery
p897
I00
sVonline
p898
I00
sVmarket
p899
I00
sVflipkart
p900
I00
ss.