(dp0
S'stock'
p1
cnumpy.core.multiarray
_reconstruct
p2
(cnumpy
ndarray
p3
(I0
tp4
S'b'
p5
tp6
Rp7
(I1
(I2
tp8
cnumpy
dtype
p9
(S'i8'
p10
I0
I1
tp11
Rp12
(I3
S'<'
p13
NNNI-1
I-1
I0
tp14
bI00
S'\x01\x00\x00\x00\x00\x00\x00\x00\x00\x00\x00\x00\x00\x00\x00\x00'
p15
tp16
bsS'secondly'
p17
g2
(g3
(I0
tp18
g5
tp19
Rp20
(I1
(I2
tp21
g12
I00
S'\x00\x00\x00\x00\x00\x00\x00\x00\x01\x00\x00\x00\x00\x00\x00\x00'
p22
tp23
bsS'downvoting'
p24
g7
sS'limited'
p25
g20
sS'copy'
p26
g7
sS'child'
p27
g7
sS'bear'
p28
g7
sS'colleges'
p29
g7
sS'yellow'
p30
g20
sS'four'
p31
g20
sS'prices'
p32
g7
sS'protest'
p33
g7
sS'sleep'
p34
g7
sS'asian'
p35
g20
sS'controversial'
p36
g20
sS'hating'
p37
g20
sS'captain'
p38
g7
sS'integrity'
p39
g7
sS'towns'
p40
g20
sS'aggression'
p41
g20
sS'poorly'
p42
g20
sS'relationships'
p43
g7
sS'offenses'
p44
g20
sS'votes'
p45
g20
sS'voter'
p46
g20
sS'violate'
p47
g20
sS'electricity'
p48
g7
sS'tweet'
p49
g7
sS'disability'
p50
g20
sS'contained'
p51
g7
sS'mistakes'
p52
g7
sS'swat'
p53
g7
sS'investigation'
p54
g20
sS'voted'
p55
g20
sS'whatsoever'
p56
g20
sS'under'
p57
g20
sS'teaching'
p58
g7
sS'sorry'
p59
g7
sS'pride'
p60
g7
sS'worth'
p61
g20
sS'updated'
p62
g7
sS'risk'
p63
g20
sS'compassion'
p64
g7
sS'dollar'
p65
g7
sS'blanket'
p66
g7
sS'rise'
p67
g20
sS'misunderstanding'
p68
g7
sS'handling'
p69
g7
sS'every'
p70
g20
sS'jack'
p71
g7
sS'kick'
p72
g7
sS'affect'
p73
g20
sS'stabbed'
p74
g7
sS'screaming'
p75
g20
sS'encounter'
p76
g20
sS'married'
p77
g7
sS'tickets'
p78
g20
sS'school'
p79
g7
sS'receiving'
p80
g7
sS'provide'
p81
g7
sS'facilities'
p82
g7
sS'skills'
p83
g7
sS'supports'
p84
g20
sS'companies'
p85
g7
sS'solution'
p86
g7
sS'tools'
p87
g7
sS'convenience'
p88
g20
sS'unrelated'
p89
g20
sS'joke'
p90
g7
sS'math'
p91
g7
sS'employees'
p92
g7
sS'shows'
p93
g7
sS'straight'
p94
g20
sS'clothes'
p95
g7
sS'non-violent'
p96
g20
sS'forget'
p97
g7
sS'charter'
p98
g7
sS'bill'
p99
g7
sS'force'
p100
g20
sS'leaders'
p101
g7
sS'tired'
p102
g20
sS'till'
p103
g7
sS'phones'
p104
g7
sS'consistent'
p105
g7
sS'hanging'
p106
g7
sS'mail'
p107
g7
sS'request'
p108
g20
sS'elections'
p109
g20
sS'nail'
p110
g7
sS'surrounding'
p111
g20
sS'likely'
p112
g20
sS'street'
p113
g7
sS'summer'
p114
g7
sS'manner'
p115
g7
sS'writing'
p116
g7
sS'estimated'
p117
g20
sS'machines'
p118
g7
sS'monster'
p119
g20
sS'even'
p120
g20
sS'established'
p121
g20
sS'settlement'
p122
g7
sS'hide'
p123
g20
sS'christ'
p124
g7
sS'prisons'
p125
g20
sS'religious'
p126
g20
sS'meals'
p127
g7
sS'beaten'
p128
g20
sS'fingers'
p129
g20
sS'poison'
p130
g20
sS'journalist'
p131
g7
sS'wouldnt'
p132
g20
sS'hostile'
p133
g7
sS'above'
p134
g7
sS'conduct'
p135
g20
sS'churches'
p136
g20
sS'tips'
p137
g7
sS'increasing'
p138
g20
sS'ever'
p139
g20
sS'told'
p140
g20
sS'hobby'
p141
g7
sS'deemed'
p142
g20
sS'kicked'
p143
g20
sS'simultaneously'
p144
g20
sS'immigrants'
p145
g20
sS'reporter'
p146
g7
sS'incentives'
p147
g7
sS'human'
p148
g20
sS'never'
p149
g20
sS'meh'
p150
g7
sS'here'
p151
g20
sS'hundreds'
p152
g20
sS'reported'
p153
g20
sS'protection'
p154
g20
sS'china'
p155
g7
sS'represented'
p156
g20
sS'path'
p157
g20
sS'100'
p158
g20
sS'establishment'
p159
g20
sS'interpret'
p160
g7
sS'buddy'
p161
g7
sS'obtained'
p162
g7
sS'substance'
p163
g20
sS'daughter'
p164
g7
sS'forum'
p165
g7
sS'clarify'
p166
g7
sS'items'
p167
g7
sS'study'
p168
g7
sS'changed'
p169
g20
sS'reports'
p170
g7
sS'controversy'
p171
g20
sS'eh'
p172
g7
sS'credit'
p173
g7
sS'smoke'
p174
g20
sS'permit'
p175
g20
sS'armored'
p176
g7
sS'california'
p177
g7
sS'aka'
p178
g7
sS'theres'
p179
g20
sS'changes'
p180
g20
sS'punishment'
p181
g20
sS'fell'
p182
g20
sS'criticism'
p183
g20
sS'golden'
p184
g7
sS'divide'
p185
g20
sS'magically'
p186
g20
sS'straw'
p187
g20
sS'explained'
p188
g7
sS'reagan'
p189
g20
sS'feelings'
p190
g20
sS'psychological'
p191
g20
sS'visible'
p192
g7
sS'pound'
p193
g7
sS'moral'
p194
g20
sS'counts'
p195
g20
sS'total'
p196
g20
sS'unit'
p197
g7
sS'plot'
p198
g7
sS'sexual'
p199
g20
sS'criminals'
p200
g20
sS'dna'
p201
g7
sS'spoke'
p202
g7
sS'army'
p203
g7
sS'found'
p204
g20
sS'hospital'
p205
g7
sS'voters'
p206
g20
sS'negative'
p207
g20
sS'insult'
p208
g7
sS'cents'
p209
g7
sS'asses'
p210
g20
sS'bike'
p211
g7
sS'call'
p212
g20
sS'therefore'
p213
g20
sS'raids'
p214
g7
sS'violently'
p215
g20
sS'strike'
p216
g7
sS'survive'
p217
g20
sS'type'
p218
g20
sS'tell'
p219
g20
sS'breathe'
p220
g20
sS'snowden'
p221
g7
sS'speaking'
p222
g7
sS'paperwork'
p223
g7
sS'supporters'
p224
g20
sS'holy'
p225
g7
sS'populations'
p226
g20
sS'successful'
p227
g7
sS'brings'
p228
g20
sS'naive'
p229
g20
sS'haha'
p230
g7
sS'wars'
p231
g20
sS'award'
p232
g7
sS'hurt'
p233
g20
sS'99'
p234
g20
sS'glass'
p235
g7
sS'interaction'
p236
g20
sS'adult'
p237
g7
sS'lord'
p238
g7
sS'robbing'
p239
g20
sS'90'
p240
g20
sS'hole'
p241
g20
sS'hold'
p242
g20
sS'95'
p243
g20
sS'squad'
p244
g7
sS'circumstances'
p245
g20
sS'me'
p246
g20
sS'morally'
p247
g20
sS'join'
p248
g7
sS'room'
p249
g7
sS'thanks'
p250
g7
sS'rights'
p251
g20
sS'pursue'
p252
g20
sS'setup'
p253
g7
sS'work'
p254
g7
sS'refusing'
p255
g20
sS'roof'
p256
g7
sS'theories'
p257
g20
sS'movies'
p258
g7
sS'era'
p259
g20
sS'install'
p260
g7
sS'dunno'
p261
g7
sS'exceptions'
p262
g20
sS'experts'
p263
g7
sS'root'
p264
g20
sS'example'
p265
g20
sS'phrase'
p266
g7
sS'boyfriend'
p267
g7
sS'estate'
p268
g7
sS'give'
p269
g20
sS'unjust'
p270
g20
sS'cited'
p271
g7
sS'organized'
p272
g7
sS'sick'
p273
g7
sS'involve'
p274
g20
sS'10,000'
p275
g20
sS'foods'
p276
g7
sS'want'
p277
g20
sS'times'
p278
g20
sS'attract'
p279
g20
sS'absolute'
p280
g20
sS'saturday'
p281
g7
sS'end'
p282
g20
sS'recovery'
p283
g20
sS'turn'
p284
g20
sS'complaining'
p285
g20
sS'verify'
p286
g20
sS'handguns'
p287
g20
sS'song'
p288
g7
sS'nuts'
p289
g20
sS'damage'
p290
g20
sS'machine'
p291
g7
sS'how'
p292
g20
sS'stupidity'
p293
g20
sS'games'
p294
g7
sS'disappear'
p295
g20
sS'accusations'
p296
g20
sS'toxic'
p297
g20
sS'widespread'
p298
g20
sS'chase'
p299
g7
sS'beach'
p300
g7
sS'charging'
p301
g7
sS'pizza'
p302
g7
sS'badly'
p303
g20
sS'fever'
p304
g20
sS'minority'
p305
g20
sS'safe'
p306
g7
sS'mess'
p307
g20
sS'warm'
p308
g7
sS'after'
p309
g20
sS'confirmed'
p310
g7
sS'demanding'
p311
g20
sS'jumping'
p312
g20
sS'mph'
p313
g20
sS'sentencing'
p314
g20
sS'suing'
p315
g20
sS'law'
p316
g20
sS'meaningful'
p317
g7
sS'excited'
p318
g7
sS'types'
p319
g20
sS'purchase'
p320
g7
sS'retail'
p321
g7
sS'attempt'
p322
g20
sS'choking'
p323
g20
sS'third'
p324
g20
sS'wins'
p325
g20
sS'education'
p326
g7
sS'lost'
p327
g7
sS'season'
p328
g7
sS'capitalism'
p329
g20
sS'cigarettes'
p330
g20
sS'maintain'
p331
g7
sS'green'
p332
g7
sS'waited'
p333
g7
sS'capitalist'
p334
g20
sS'suggest'
p335
g20
sS'1000'
p336
g20
sS'athletes'
p337
g7
sS'order'
p338
g20
sS'greed'
p339
g20
sS'operations'
p340
g20
sS'emotion'
p341
g20
sS'executed'
p342
g20
sS'interpretation'
p343
g7
sS'office'
p344
g20
sS'enter'
p345
g7
sS'consent'
p346
g20
sS'over'
p347
g20
sS'misdemeanor'
p348
g20
sS'vary'
p349
g20
sS'russian'
p350
g7
sS'attorneys'
p351
g7
sS'vastly'
p352
g20
sS'misconduct'
p353
g20
sS'mayor'
p354
g7
sS'exchange'
p355
g7
sS'before'
p356
g20
sS'fit'
p357
g20
sS'hypocrisy'
p358
g20
sS'personal'
p359
g20
sS'bringing'
p360
g7
sS'fix'
p361
g7
sS'recreational'
p362
g20
sS'expectations'
p363
g20
sS'imo'
p364
g20
sS'comprehend'
p365
g20
sS'better'
p366
g20
sS'production'
p367
g7
sS'differently'
p368
g20
sS'400'
p369
g20
sS'weeks'
p370
g7
sS'hamas'
p371
g7
sS'easier'
p372
g20
sS'split'
p373
g20
sS'versus'
p374
g20
sS'then'
p375
g20
sS'them'
p376
g20
sS'affected'
p377
g20
sS'diseases'
p378
g20
sS'combination'
p379
g20
sS'prevented'
p380
g20
sS'prefer'
p381
g7
sS'unemployed'
p382
g20
sS'peoples'
p383
g7
sS'finish'
p384
g7
sS'break'
p385
g20
sS'band'
p386
g7
sS'bang'
p387
g7
sS'heaven'
p388
g7
sS'therapy'
p389
g20
sS'effects'
p390
g20
sS'supposed'
p391
g20
sS'schools'
p392
g7
sS'one'
p393
g20
sS'bank'
p394
g7
sS'bread'
p395
g7
sS'represents'
p396
g20
sS'rhetoric'
p397
g20
sS'indictment'
p398
g20
sS'double'
p399
g7
sS'meat'
p400
g7
sS'oxygen'
p401
g20
sS'reasonably'
p402
g20
sS'classified'
p403
g7
sS'arrested'
p404
g20
sS'slavery'
p405
g20
sS'detroit'
p406
g7
sS'rocks'
p407
g7
sS'ya'
p408
g7
sS'reasonable'
p409
g20
sS'each'
p410
g20
sS'addicted'
p411
g20
sS'went'
p412
g7
sS'european'
p413
g20
sS'computer'
p414
g7
sS'side'
p415
g20
sS'mean'
p416
g20
sS'candy'
p417
g7
sS'signing'
p418
g7
sS'financial'
p419
g20
sS'suspended'
p420
g20
sS'independent'
p421
g7
sS'laying'
p422
g7
sS'train'
p423
g7
sS'crimes'
p424
g20
sS'principles'
p425
g20
sS'dedicated'
p426
g7
sS'joined'
p427
g7
sS'carry'
p428
g7
sS'taught'
p429
g7
sS'trading'
p430
g7
sS'corporations'
p431
g20
sS'navy'
p432
g7
sS'aids'
p433
g20
sS'mandated'
p434
g7
sS'ring'
p435
g7
sS'whining'
p436
g20
sS'network'
p437
g7
sS'driving'
p438
g20
sS'restricted'
p439
g20
sS'ha'
p440
g7
sS'dime'
p441
g7
sS'tomorrow'
p442
g7
sS'content'
p443
g7
sS're'
p444
g20
sS'encourage'
p445
g20
sS'nope'
p446
g7
sS'banning'
p447
g20
sS'medicine'
p448
g20
sS'surprise'
p449
g20
sS'accessible'
p450
g7
sS'size'
p451
g20
sS'forth'
p452
g7
sS'gop'
p453
g20
sS'foundation'
p454
g7
sS'perception'
p455
g20
sS'turning'
p456
g20
sS'associate'
p457
g20
sS'threatened'
p458
g20
sS'revenge'
p459
g20
sS'free'
p460
g7
sS'standard'
p461
g7
sS'management'
p462
g7
sS'struggle'
p463
g20
sS'checked'
p464
g7
sS'estimate'
p465
g20
sS'wanted'
p466
g20
sS'heat'
p467
g7
sS'yard'
p468
g7
sS'enormous'
p469
g7
sS'ate'
p470
g7
sS'created'
p471
g20
sS'starts'
p472
g20
sS'isp'
p473
g7
sS'messages'
p474
g7
sS'days'
p475
g7
sS'heading'
p476
g7
sS'creates'
p477
g20
sS'heck'
p478
g20
sS'oppose'
p479
g20
sS'smokers'
p480
g20
sS'soda'
p481
g7
sS'feds'
p482
g20
sS'scheme'
p483
g7
sS'onto'
p484
g20
sS'bite'
p485
g7
sS'speeds'
p486
g7
sS'cleaning'
p487
g20
sS'protesting'
p488
g7
sS'enjoy'
p489
g7
sS'already'
p490
g20
sS'hero'
p491
g7
sS'kim'
p492
g7
sS'grade'
p493
g20
sS'primary'
p494
g20
sS'hearing'
p495
g20
sS'restrict'
p496
g20
sS'hook'
p497
g20
sS'another'
p498
g20
sS'drones'
p499
g7
sS'sober'
p500
g7
sS'plastic'
p501
g20
sS'electronic'
p502
g20
sS'hood'
p503
g20
sS'feeding'
p504
g7
sS'olds'
p505
g7
sS'toy'
p506
g7
sS'fence'
p507
g7
sS'service'
p508
g7
sS'similarly'
p509
g20
sS'sarcasm'
p510
g7
sS'top'
p511
g20
sS'night'
p512
g7
sS'girls'
p513
g7
sS'twisted'
p514
g20
sS'approximately'
p515
g20
sS'name'
p516
g7
sS'needed'
p517
g20
sS'ton'
p518
g20
sS'too'
p519
g20
sS'hypothetical'
p520
g20
sS'tom'
p521
g7
sS'percentage'
p522
g20
sS'legs'
p523
g20
sS'dogs'
p524
g7
sS'damaging'
p525
g20
sS'listen'
p526
g7
sS'urban'
p527
g20
sS'murder'
p528
g20
sS'collapse'
p529
g20
sS'herself'
p530
g7
sS'mandate'
p531
g7
sS'tool'
p532
g7
sS'serve'
p533
g20
sS'took'
p534
g20
sS'direct'
p535
g20
sS'guidelines'
p536
g7
sS'western'
p537
g20
sS'somewhat'
p538
g20
sS'wasted'
p539
g20
sS'kept'
p540
g7
sS'maintaining'
p541
g7
sS'begins'
p542
g20
sS'distance'
p543
g20
sS'anxiety'
p544
g20
sS'last'
p545
g7
sS'frankly'
p546
g20
sS'burger'
p547
g7
sS'legalize'
p548
g20
sS'tree'
p549
g7
sS'second'
p550
g20
sS'nations'
p551
g20
sS'project'
p552
g7
sS'matter'
p553
g20
sS'classes'
p554
g7
sS'guilt'
p555
g20
sS'snow'
p556
g7
sS'historical'
p557
g7
sS'budget'
p558
g7
sS'k'
p559
g7
sS'feeling'
p560
g20
sS'powers'
p561
g20
sS'brilliant'
p562
g7
sS'bridge'
p563
g7
sS'fashion'
p564
g7
sS'sees'
p565
g20
sS'objects'
p566
g7
sS'enforcement'
p567
g20
sS'ran'
p568
g20
sS'boston'
p569
g20
sS'modern'
p570
g7
sS'mind'
p571
g20
sS'spectrum'
p572
g7
sS'spent'
p573
g20
sS'return'
p574
g7
sS'talking'
p575
g20
sS'analysis'
p576
g7
sS'stream'
p577
g7
sS'seen'
p578
g20
sS'seem'
p579
g20
sS'regulate'
p580
g7
sS'seek'
p581
g20
sS'tells'
p582
g7
sS'alive'
p583
g7
sS'dozen'
p584
g20
sS'forced'
p585
g20
sS'implemented'
p586
g7
sS'genuine'
p587
g7
sS'allegedly'
p588
g20
sS'academic'
p589
g7
sS'convenient'
p590
g20
sS'latter'
p591
g20
sS'responsible'
p592
g20
sS'isolated'
p593
g20
sS'chest'
p594
g20
sS'causing'
p595
g20
sS'luxury'
p596
g7
sS'forces'
p597
g7
sS'laughed'
p598
g7
sS'essential'
p599
g7
sS'blue'
p600
g7
sS'exactly'
p601
g20
sS'committing'
p602
g20
sS'though'
p603
g20
sS'desert'
p604
g7
sS'huh'
p605
g7
sS'object'
p606
g20
sS'involving'
p607
g20
sS'germany'
p608
g20
sS'ensure'
p609
g7
sS'plenty'
p610
g20
sS'entry'
p611
g7
sS'oil'
p612
g7
sS'cap'
p613
g7
sS'autopsy'
p614
g20
sS'morality'
p615
g20
sS'peers'
p616
g7
sS'smoked'
p617
g20
sS'episode'
p618
g7
sS'treats'
p619
g20
sS'neighborhoods'
p620
g7
sS'cops'
p621
g20
sS'cams'
p622
g7
sS'corporate'
p623
g20
sS'professor'
p624
g7
sS'camp'
p625
g20
sS'm'
p626
g20
sS'dog'
p627
g7
sS'crowd'
p628
g20
sS'stating'
p629
g7
sS'missed'
p630
g7
sS'definitely'
p631
g20
sS'tech'
p632
g7
sS'principle'
p633
g20
sS'sun'
p634
g7
sS'voting'
p635
g20
sS'er'
p636
g7
sS'notion'
p637
g20
sS'came'
p638
g20
sS'reserve'
p639
g7
sS'saying'
p640
g20
sS'play'
p641
g7
sS'bomb'
p642
g20
sS'pope'
p643
g7
sS'random'
p644
g20
sS'sexist'
p645
g20
sS'ending'
p646
g20
sS'religions'
p647
g20
sS'attempts'
p648
g20
sS'radio'
p649
g7
sS'liberty'
p650
g20
sS'participate'
p651
g20
sS'lethal'
p652
g20
sS'earth'
p653
g20
sS'bail'
p654
g20
sS'clock'
p655
g7
sS'make'
p656
g20
sS'hes'
p657
g7
sS'judges'
p658
g20
sS'finally'
p659
g20
sS'quoted'
p660
g7
sS'lights'
p661
g7
sS'headline'
p662
g7
sS'situations'
p663
g20
sS'explain'
p664
g20
sS'unemployment'
p665
g7
sS'vacation'
p666
g7
sS'bust'
p667
g20
sS'sugar'
p668
g7
sS'bush'
p669
g20
sS'touched'
p670
g7
sS'rich'
p671
g20
sS'folks'
p672
g7
sS'rice'
p673
g7
sS'stores'
p674
g7
sS'personality'
p675
g20
sS'wearing'
p676
g7
sS'plate'
p677
g7
sS'asians'
p678
g20
sS'10'
p679
g20
sS'de'
p680
g7
sS'stop'
p681
g20
sS'dc'
p682
g20
sS'coast'
p683
g7
sS'pocket'
p684
g7
sS'amazon'
p685
g7
sS'12'
p686
g20
sS'covered'
p687
g7
sS'spirit'
p688
g7
sS'altogether'
p689
g20
sS'report'
p690
g7
sS'reviewed'
p691
g7
sS'dr'
p692
g7
sS'net'
p693
g7
sS'comply'
p694
g20
sS'societies'
p695
g20
sS'hall'
p696
g7
sS'runs'
p697
g20
sS'bar'
p698
g7
sS'countries'
p699
g20
sS'convinced'
p700
g20
sS'officially'
p701
g20
sS'idiotic'
p702
g20
sS'bay'
p703
g7
sS'twice'
p704
g20
sS'bad'
p705
g20
sS'shots'
p706
g20
sS'ban'
p707
g20
sS'steal'
p708
g20
sS'parade'
p709
g7
sS'black'
p710
g20
sS'respond'
p711
g20
sS'ethical'
p712
g20
sS'blew'
p713
g20
sS'decides'
p714
g20
sS'disaster'
p715
g20
sS'fair'
p716
g20
sS'habit'
p717
g20
sS'nut'
p718
g20
sS'testing'
p719
g20
sS'resist'
p720
g20
sS'depends'
p721
g20
sS'decided'
p722
g20
sS'result'
p723
g20
sS'taxpayer'
p724
g7
sS'corrupt'
p725
g20
sS'disturbing'
p726
g20
sS'tortured'
p727
g20
sS'hammer'
p728
g7
sS'hit'
p729
g7
sS'subject'
p730
g7
sS'said'
p731
g20
sS'capacity'
p732
g7
sS'inappropriate'
p733
g20
sS'lots'
p734
g20
sS'away'
p735
g20
sS'irs'
p736
g20
sS'wikipedia'
p737
g7
sS'compensation'
p738
g7
sS't-mobile'
p739
g7
sS'opened'
p740
g7
sS'stamps'
p741
g7
sS'unable'
p742
g20
sS'features'
p743
g7
sS'finger'
p744
g20
sS'pets'
p745
g7
sS'hopefully'
p746
g20
sS'drawn'
p747
g7
sS'sorts'
p748
g20
sS'tolerance'
p749
g7
sS'profitable'
p750
g7
sS'lazy'
p751
g20
sS'men'
p752
g20
sS'terms'
p753
g7
sS'extend'
p754
g20
sS'nature'
p755
g20
sS'wo'
p756
g20
sS'felony'
p757
g20
sS'handful'
p758
g20
sS'weak'
p759
g20
sS'however'
p760
g20
sS'boss'
p761
g7
sS'cut'
p762
g20
sS'wear'
p763
g7
sS'extent'
p764
g20
sS'visited'
p765
g7
sS'news'
p766
g7
sS'picking'
p767
g20
sS'debt'
p768
g7
sS'hahaha'
p769
g7
sS'holds'
p770
g20
sS'improve'
p771
g20
sS'faced'
p772
g20
sS'cop'
p773
g20
sS'protect'
p774
g20
sS'accident'
p775
g20
sS'cow'
p776
g7
sS'met'
p777
g7
sS'country'
p778
g20
sS'ill'
p779
g20
sS'conclusions'
p780
g7
sS'against'
p781
g20
sS'damned'
p782
g7
sS'players'
p783
g7
sS'guy'
p784
g7
sS'planned'
p785
g7
sS'logic'
p786
g7
sS'looters'
p787
g20
sS'requests'
p788
g20
sS'argue'
p789
g20
sS'asked'
p790
g7
sS'peacefully'
p791
g20
sS'collecting'
p792
g7
sS'jurisdiction'
p793
g20
sS'tough'
p794
g7
sS'very'
p795
g20
sS'appeared'
p796
g20
sS'character'
p797
g7
sS'irresponsible'
p798
g20
sS'civilians'
p799
g7
sS'vast'
p800
g20
sS'epidemic'
p801
g20
sS'2nd'
p802
g20
sS'active'
p803
g7
sS'tons'
p804
g20
sS'written'
p805
g7
sS'comprehension'
p806
g7
sS'pregnancy'
p807
g7
sS'loaded'
p808
g7
sS'trust'
p809
g20
sS'offered'
p810
g7
sS'hitler'
p811
g20
sS'speak'
p812
g20
sS'code'
p813
g7
sS'bathroom'
p814
g20
sS'petty'
p815
g20
sS'targeting'
p816
g20
sS'sam'
p817
g7
sS'asks'
p818
g20
sS'basis'
p819
g7
sS'union'
p820
g7
sS'three'
p821
g20
sS'been'
p822
g20
sS'quickly'
p823
g20
sS'bothers'
p824
g20
sS'commission'
p825
g20
sS'beer'
p826
g20
sS'much'
p827
g20
sS'interest'
p828
g7
sS'basic'
p829
g7
sS'privilege'
p830
g20
sS'parents'
p831
g7
sS'entered'
p832
g7
sS'dozens'
p833
g20
sS'incompetent'
p834
g20
sS'duties'
p835
g20
sS'threw'
p836
g20
sS'website'
p837
g7
sS'dry'
p838
g7
sS'life'
p839
g20
sS'families'
p840
g7
sS'deeper'
p841
g20
sS'attacked'
p842
g20
sS'drugs'
p843
g20
sS'concerning'
p844
g20
sS'dismiss'
p845
g20
sS'worker'
p846
g7
sS'uncommon'
p847
g20
sS'argument'
p848
g7
sS'attacker'
p849
g20
sS'kids'
p850
g7
sS'personally'
p851
g20
sS'catch'
p852
g7
sS'worked'
p853
g7
sS'spin'
p854
g7
sS'cunt'
p855
g20
sS'chill'
p856
g7
sS'applied'
p857
g20
sS'unpopular'
p858
g20
sS'exception'
p859
g20
sS'save'
p860
g20
sS'tank'
p861
g7
sS'ahead'
p862
g7
sS'publicly'
p863
g20
sS'air'
p864
g7
sS'lesser'
p865
g20
sS'ugly'
p866
g20
sS'near'
p867
g20
sS'suppose'
p868
g7
sS'teachers'
p869
g7
sS'applies'
p870
g20
sS'appeals'
p871
g20
sS'aid'
p872
g7
sS'murders'
p873
g20
sS'leaves'
p874
g7
sS'procedure'
p875
g7
sS'unlikely'
p876
g20
sS'bin'
p877
g20
sS'seven'
p878
g20
sS'economics'
p879
g7
sS'sexually'
p880
g7
sS'florida'
p881
g7
sS'mexico'
p882
g20
sS'iq'
p883
g7
sS'dictate'
p884
g20
sS'losing'
p885
g7
sS'customers'
p886
g7
sS'expenses'
p887
g7
sS'ii'
p888
g7
sS'shame'
p889
g20
sS'cant'
p890
g20
sS'im'
p891
g7
sS'creepy'
p892
g20
sS'uncle'
p893
g7
sS'cook'
p894
g7
sS'march'
p895
g7
sS't'
p896
g7
sS'seattle'
p897
g20
sS'ie'
p898
g7
sS'id'
p899
g7
sS'trusted'
p900
g20
sS'grown'
p901
g7
sS'damaged'
p902
g20
sS'bottles'
p903
g7
sS'lacking'
p904
g7
sS'soldier'
p905
g7
sS'perform'
p906
g20
sS'things'
p907
g20
sS'realizing'
p908
g20
sS'wound'
p909
g20
sS'airport'
p910
g7
sS'linked'
p911
g7
sS'1'
p912
g7
sS'complex'
p913
g20
sS'potentially'
p914
g20
sS'damages'
p915
g20
sS'unfortunate'
p916
g20
sS'80s'
p917
g7
sS'silly'
p918
g20
sS'several'
p919
g20
sS'convictions'
p920
g20
sS'survival'
p921
g20
sS'entitled'
p922
g20
sS'wheel'
p923
g7
sS'fairly'
p924
g20
sS'spying'
p925
g20
sS'raid'
p926
g20
sS'thank'
p927
g7
sS'catholic'
p928
g7
sS'luck'
p929
g7
sS'social'
p930
g20
sS'hang'
p931
g7
sS'workforce'
p932
g7
sS'evil'
p933
g20
sS'possible'
p934
g20
sS'liberties'
p935
g20
sS'day'
p936
g7
sS'afraid'
p937
g7
sS'ownership'
p938
g20
sS'military'
p939
g7
sS'strength'
p940
g7
sS'opportunity'
p941
g20
sS'blamed'
p942
g20
sS'thoughts'
p943
g20
sS'cycle'
p944
g20
sS'mentioning'
p945
g20
sS'prescribed'
p946
g20
sS'shortly'
p947
g20
sS'scenario'
p948
g20
sS'shitty'
p949
g20
sS'performance'
p950
g20
sS'settled'
p951
g20
sS'failing'
p952
g20
sS'boxes'
p953
g7
sS'ocean'
p954
g7
sS'tho'
p955
g7
sS'hispanic'
p956
g20
sS'charity'
p957
g7
sS'practices'
p958
g20
sS'greatest'
p959
g7
sS'detained'
p960
g20
sS'mother'
p961
g7
sS'claims'
p962
g20
sS'alabama'
p963
g7
sS'camps'
p964
g20
sS'thc'
p965
g20
sS'yours'
p966
g7
sS'left'
p967
g20
sS'opinions'
p968
g20
sS'answering'
p969
g7
sS'protocol'
p970
g7
sS'birth'
p971
g7
sS'proposed'
p972
g7
sS'sentence'
p973
g20
sS'yea'
p974
g7
sS'photo'
p975
g7
sS'unfair'
p976
g20
sS'crew'
p977
g7
sS'aside'
p978
g20
sS'govt'
p979
g7
sS'bandwidth'
p980
g7
sS'financially'
p981
g20
sS'identify'
p982
g20
sS'spread'
p983
g20
sS'victim'
p984
g20
sS'ol'
p985
g7
sS'facts'
p986
g20
sS'yep'
p987
g7
sS'yes'
p988
g20
sS'24/7'
p989
g7
sS'yet'
p990
g20
sS'previous'
p991
g7
sS'adding'
p992
g7
sS'unique'
p993
g7
sS'campaign'
p994
g7
sS'candidate'
p995
g20
sS'mix'
p996
g7
sS'boot'
p997
g7
sS'had'
p998
g20
sS'belongs'
p999
g20
sS'teenager'
p1000
g7
sS'easy'
p1001
g20
sS'prison'
p1002
g20
sS'pointing'
p1003
g7
sS'has'
p1004
g20
sS'hat'
p1005
g20
sS'humanity'
p1006
g20
sS'gave'
p1007
g7
sS'shoulder'
p1008
g20
sS'tactic'
p1009
g7
sS'knock'
p1010
g7
sS'breaks'
p1011
g20
sS'addicts'
p1012
g20
sS'implied'
p1013
g7
sS'caps'
p1014
g7
sS'possibly'
p1015
g20
sS'cultural'
p1016
g20
sS'bastards'
p1017
g20
sS'background'
p1018
g20
sS'destroy'
p1019
g20
sS'judge'
p1020
g20
sS'altitude'
p1021
g7
sS'apart'
p1022
g7
sS'objectively'
p1023
g20
sS'korean'
p1024
g7
sS'advanced'
p1025
g7
sS'occurring'
p1026
g20
sS'desire'
p1027
g20
sS'brought'
p1028
g20
sS'brutality'
p1029
g20
sS'gift'
p1030
g7
sS'obvious'
p1031
g7
sS'cool'
p1032
g7
sS'performing'
p1033
g20
sS'dishonest'
p1034
g20
sS'unnecessary'
p1035
g20
sS'specific'
p1036
g20
sS'remind'
p1037
g20
sS'steps'
p1038
g7
sS'officer'
p1039
g20
sS'arbitrary'
p1040
g20
sS'hung'
p1041
g7
sS'security'
p1042
g7
sS'sometime'
p1043
g7
sS'attorney'
p1044
g20
sS'right'
p1045
g20
sS'old'
p1046
g7
sS'deal'
p1047
g20
sS'staff'
p1048
g7
sS'successfully'
p1049
g20
sS'somehow'
p1050
g20
sS'emails'
p1051
g7
sS'50'
p1052
g20
sS'malaysia'
p1053
g7
sS'offer'
p1054
g7
sS'election'
p1055
g20
sS'statistic'
p1056
g20
sS'dear'
p1057
g7
sS'multiple'
p1058
g20
sS'harassment'
p1059
g20
sS'asia'
p1060
g7
sS'library'
p1061
g7
sS'confusing'
p1062
g20
sS'consensus'
p1063
g20
sS'cocaine'
p1064
g20
sS'dense'
p1065
g20
sS'bottom'
p1066
g20
sS'establish'
p1067
g7
sS'investigations'
p1068
g20
sS'fox'
p1069
g7
sS'comments'
p1070
g7
sS'contributing'
p1071
g7
sS'everything'
p1072
g20
sS'individuals'
p1073
g20
sS'denied'
p1074
g7
sS'cnn'
p1075
g7
sS'convict'
p1076
g20
sS'confusion'
p1077
g7
sS'beating'
p1078
g7
sS'christmas'
p1079
g7
sS'core'
p1080
g20
sS'specifically'
p1081
g20
sS'fish'
p1082
g7
sS'rep'
p1083
g7
sS'deleted'
p1084
g7
sS'marketing'
p1085
g7
sS'payment'
p1086
g7
sS'burn'
p1087
g20
sS'circlejerk'
p1088
g20
sS'decisions'
p1089
g7
sS'discount'
p1090
g7
sS'confrontation'
p1091
g20
sS'defensive'
p1092
g7
sS'peer'
p1093
g7
sS'post'
p1094
g7
sS'falls'
p1095
g20
sS'super'
p1096
g7
sS'dead'
p1097
g7
sS'foolish'
p1098
g20
sS'yelling'
p1099
g7
sS'parenting'
p1100
g7
sS'attacks'
p1101
g20
sS'theirs'
p1102
g20
sS'dollars'
p1103
g20
sS'citizens'
p1104
g20
sS'choke'
p1105
g20
sS'o'
p1106
g7
sS'costs'
p1107
g7
sS'magazine'
p1108
g7
sS'misleading'
p1109
g20
sS'genocide'
p1110
g20
sS'excellent'
p1111
g7
sS'commit'
p1112
g20
sS'efforts'
p1113
g20
sS'palestinians'
p1114
g7
sS'slightly'
p1115
g20
sS'automatically'
p1116
g7
sS'raised'
p1117
g7
sS'statements'
p1118
g7
sS'subs'
p1119
g7
sS'lied'
p1120
g20
sS'presence'
p1121
g20
sS'wasting'
p1122
g20
sS'pays'
p1123
g7
sS'prisoners'
p1124
g20
sS'profession'
p1125
g7
sS'bound'
p1126
g20
sS'intellectual'
p1127
g7
sS'arms'
p1128
g20
sS'down'
p1129
g20
sS'lies'
p1130
g20
sS'beings'
p1131
g20
sS'donated'
p1132
g7
sS'raises'
p1133
g7
sS'doctrine'
p1134
g7
sS'shoots'
p1135
g20
sS'reducing'
p1136
g20
sS'rant'
p1137
g7
sS'rounds'
p1138
g7
sS'murderers'
p1139
g20
sS'methods'
p1140
g7
sS'existed'
p1141
g20
sS'rely'
p1142
g7
sS'america'
p1143
g20
sS'stereotype'
p1144
g20
sS'mcdonald'
p1145
g7
sS'support'
p1146
g20
sS'constantly'
p1147
g20
sS'legislation'
p1148
g7
sS'fight'
p1149
g20
sS'absolutely'
p1150
g20
sS'accordingly'
p1151
g20
sS'fought'
p1152
g7
sS'winning'
p1153
g7
sS'author'
p1154
g7
sS'way'
p1155
g20
sS'spring'
p1156
g7
sS'rapes'
p1157
g20
sS'boom'
p1158
g7
sS'luckily'
p1159
g7
sS'war'
p1160
g20
sS'comcast'
p1161
g7
sS'lowest'
p1162
g20
sS'head'
p1163
g7
sS'creation'
p1164
g7
sS'form'
p1165
g20
sS'manufacturers'
p1166
g7
sS'attempted'
p1167
g20
sS'becoming'
p1168
g20
sS'differences'
p1169
g20
sS'lawn'
p1170
g7
sS'landing'
p1171
g7
sS'ford'
p1172
g7
sS'failure'
p1173
g20
sS'purchasing'
p1174
g7
sS'hear'
p1175
g20
sS'elderly'
p1176
g7
sS'solar'
p1177
g7
sS'gaming'
p1178
g7
sS'surrender'
p1179
g20
sS'true'
p1180
g20
sS'week'
p1181
g7
sS'gaza'
p1182
g7
sS'responding'
p1183
g7
sS'isis'
p1184
g20
sS'friday'
p1185
g7
sS'born'
p1186
g7
sS'prevents'
p1187
g20
sS'inside'
p1188
g7
sS'hitting'
p1189
g7
sS'attached'
p1190
g7
sS'maximum'
p1191
g20
sS'devices'
p1192
g7
sS'until'
p1193
g20
sS'emotional'
p1194
g20
sS'reform'
p1195
g7
sS'propaganda'
p1196
g20
sS'delete'
p1197
g7
sS'150'
p1198
g20
sS'medication'
p1199
g20
sS'liberal'
p1200
g20
sS'classic'
p1201
g7
sS'tesla'
p1202
g7
sS'upset'
p1203
g20
sS'wealthy'
p1204
g7
sS'escape'
p1205
g20
sS'proven'
p1206
g20
sS'evidence'
p1207
g20
sS'unbiased'
p1208
g7
sS'proves'
p1209
g20
sS'exist'
p1210
g20
sS'accounting'
p1211
g7
sS'awhile'
p1212
g20
sS'annoying'
p1213
g20
sS'sympathy'
p1214
g20
sS'dealer'
p1215
g7
sS'shit'
p1216
g20
sS'physical'
p1217
g20
sS'blatantly'
p1218
g20
sS'looked'
p1219
g7
sS'nj'
p1220
g7
sS'nk'
p1221
g7
sS'discriminate'
p1222
g20
sS'dying'
p1223
g7
sS'floor'
p1224
g7
sS'agreeing'
p1225
g7
sS'na'
p1226
g7
sS'whereas'
p1227
g20
sS'generally'
p1228
g20
sS'handed'
p1229
g20
sS'reality'
p1230
g20
sS'til'
p1231
g7
sS'ny'
p1232
g7
sS'build'
p1233
g7
sS'falsely'
p1234
g20
sS'republic'
p1235
g20
sS'holding'
p1236
g7
sS'anti-gun'
p1237
g20
sS'test'
p1238
g20
sS'tie'
p1239
g7
sS'enemies'
p1240
g20
sS'smell'
p1241
g20
sS'roll'
p1242
g7
sS'picture'
p1243
g7
sS'intend'
p1244
g20
sS'brothers'
p1245
g7
sS'delivered'
p1246
g7
sS'models'
p1247
g7
sS'dies'
p1248
g20
sS'felt'
p1249
g20
sS'describe'
p1250
g7
sS'update'
p1251
g7
sS'diet'
p1252
g7
sS'class'
p1253
g7
sS'scale'
p1254
g20
sS'intent'
p1255
g20
sS'climate'
p1256
g20
sS'authorities'
p1257
g7
sS'humor'
p1258
g7
sS'aware'
p1259
g7
sS'weekend'
p1260
g7
sS'died'
p1261
g7
sS'billion'
p1262
g20
sS'younger'
p1263
g7
sS'longer'
p1264
g20
sS'bullet'
p1265
g7
sS'tested'
p1266
g20
sS'assume'
p1267
g20
sS'salt'
p1268
g7
sS'moved'
p1269
g7
sS'flag'
p1270
g7
sS'together'
p1271
g20
sS'filing'
p1272
g7
sS'android'
p1273
g7
sS'vietnam'
p1274
g7
sS'operating'
p1275
g7
sS'teeth'
p1276
g20
sS'push'
p1277
g20
sS'serious'
p1278
g20
sS'precedent'
p1279
g20
sS'profits'
p1280
g7
sS'stick'
p1281
g7
sS'neighbors'
p1282
g7
sS'shop'
p1283
g7
sS'concept'
p1284
g20
sS'managed'
p1285
g20
sS'chain'
p1286
g7
sS'whoever'
p1287
g20
sS'skip'
p1288
g7
sS'rob'
p1289
g20
sS'global'
p1290
g20
sS'alternatives'
p1291
g7
sS'focus'
p1292
g20
sS'leads'
p1293
g20
sS'manager'
p1294
g7
sS'mile'
p1295
g20
sS'ice'
p1296
g7
sS'skin'
p1297
g20
sS'battle'
p1298
g7
sS'chair'
p1299
g7
sS'milk'
p1300
g7
sS'row'
p1301
g20
sS'certainly'
p1302
g20
sS'killings'
p1303
g20
sS'depend'
p1304
g20
sS'zone'
p1305
g20
sS'religion'
p1306
g20
sS'promote'
p1307
g20
sS'flash'
p1308
g7
sS'obamacare'
p1309
g7
sS'disgusting'
p1310
g20
sS'blocking'
p1311
g7
sS'environment'
p1312
g20
sS'chances'
p1313
g20
sS'charge'
p1314
g20
sS'civilization'
p1315
g7
sS'promoting'
p1316
g7
sS'supplies'
p1317
g7
sS'terror'
p1318
g20
sS'suffered'
p1319
g20
sS'must'
p1320
g20
sS'veterans'
p1321
g20
sS'ride'
p1322
g7
sS'protestors'
p1323
g7
sS'shoot'
p1324
g20
sS'vet'
p1325
g7
sS'advantage'
p1326
g20
sS'cheap'
p1327
g7
sS'keeping'
p1328
g7
sS'seemingly'
p1329
g20
sS'choice'
p1330
g7
sS'liability'
p1331
g20
sS'tanks'
p1332
g7
sS'stays'
p1333
g7
sS'application'
p1334
g7
sS'locked'
p1335
g7
sS'trouble'
p1336
g20
sS'exact'
p1337
g20
sS'minute'
p1338
g7
sS'governments'
p1339
g20
sS'perceived'
p1340
g20
sS'impressive'
p1341
g7
sS'purely'
p1342
g20
sS'did'
p1343
g20
sS'die'
p1344
g20
sS'permits'
p1345
g20
sS'posts'
p1346
g7
sS'democrat'
p1347
g20
sS'standards'
p1348
g7
sS'leave'
p1349
g20
sS'solved'
p1350
g7
sS'settle'
p1351
g7
sS'subway'
p1352
g7
sS'recall'
p1353
g7
sS'quick'
p1354
g20
sS'speculation'
p1355
g20
sS'round'
p1356
g7
sS'unaware'
p1357
g20
sS'citation'
p1358
g7
sS'prevent'
p1359
g20
sS'revolution'
p1360
g20
sS'says'
p1361
g20
sS'regret'
p1362
g20
sS'porn'
p1363
g7
sS'trend'
p1364
g20
sS'dealing'
p1365
g20
sS'okay'
p1366
g7
sS'sign'
p1367
g7
sS'cost'
p1368
g7
sS'radar'
p1369
g7
sS'soldiers'
p1370
g7
sS'patient'
p1371
g7
sS'fear'
p1372
g20
sS'drinks'
p1373
g7
sS'rapist'
p1374
g20
sS'educate'
p1375
g20
sS'adds'
p1376
g20
sS'constitution'
p1377
g20
sS'assistance'
p1378
g7
sS'remain'
p1379
g7
sS'uniform'
p1380
g7
sS'current'
p1381
g20
sS'hungry'
p1382
g20
sS'paragraph'
p1383
g7
sS'suspect'
p1384
g20
sS'goes'
p1385
g20
sS'international'
p1386
g20
sS'falling'
p1387
g20
sS'appeal'
p1388
g20
sS'badge'
p1389
g7
sS'corn'
p1390
g7
sS'filled'
p1391
g20
sS'junk'
p1392
g7
sS'supporting'
p1393
g20
sS'jury'
p1394
g20
sS'ms'
p1395
g7
sS'clerk'
p1396
g20
sS'muslim'
p1397
g20
sS'french'
p1398
g7
sS'understanding'
p1399
g7
sS'water'
p1400
g20
sS'corporation'
p1401
g7
sS'upgrade'
p1402
g7
sS'witch'
p1403
g7
sS'groups'
p1404
g20
sS'address'
p1405
g20
sS'alone'
p1406
g20
sS'grabbed'
p1407
g7
sS'along'
p1408
g7
sS'stem'
p1409
g7
sS'teacher'
p1410
g7
sS'change'
p1411
g20
sS'ordinary'
p1412
g20
sS'box'
p1413
g7
sS'buck'
p1414
g20
sS'canadian'
p1415
g7
sS'healthy'
p1416
g7
sS'shift'
p1417
g7
sS'studied'
p1418
g7
sS'wherever'
p1419
g20
sS'commonly'
p1420
g7
sS'proud'
p1421
g7
sS'trial'
p1422
g20
sS'women'
p1423
g7
sS'ineffective'
p1424
g20
sS'diagnosed'
p1425
g20
sS'suggestion'
p1426
g7
sS'usually'
p1427
g20
sS'weird'
p1428
g20
sS'studies'
p1429
g7
sS'genuinely'
p1430
g20
sS'engineer'
p1431
g7
sS'teenage'
p1432
g7
sS'shootings'
p1433
g20
sS'regardless'
p1434
g20
sS'morals'
p1435
g20
sS'extra'
p1436
g7
sS'merely'
p1437
g20
sS'sharpton'
p1438
g20
sS'association'
p1439
g7
sS'logical'
p1440
g7
sS'bloody'
p1441
g20
sS'spanish'
p1442
g7
sS'graduated'
p1443
g7
sS'qualified'
p1444
g7
sS'logically'
p1445
g20
sS'suicides'
p1446
g20
sS'scam'
p1447
g20
sS'fbi'
p1448
g20
sS'rarely'
p1449
g20
sS'crisis'
p1450
g20
sS'market'
p1451
g7
sS'everybody'
p1452
g20
sS'citizen'
p1453
g20
sS'handled'
p1454
g20
sS'<URL>'
p1455
g7
sS'prove'
p1456
g20
sS'sake'
p1457
g7
sS'positive'
p1458
g20
sS'angry'
p1459
g20
sS'stated'
p1460
g7
sS'dude'
p1461
g7
sS'tears'
p1462
g7
sS'france'
p1463
g20
sS'scenarios'
p1464
g20
sS'live'
p1465
g7
sS'explicitly'
p1466
g20
sS'opposed'
p1467
g20
sS'wondering'
p1468
g20
sS'memory'
p1469
g20
sS'scope'
p1470
g20
sS'australian'
p1471
g7
sS'patriot'
p1472
g20
sS'prosecutor'
p1473
g20
sS'loving'
p1474
g7
sS'sharing'
p1475
g7
sS'technically'
p1476
g7
sS'riot'
p1477
g20
sS'irony'
p1478
g7
sS'afford'
p1479
g7
sS'flying'
p1480
g7
sS'acceptable'
p1481
g7
sS'apparent'
p1482
g7
sS'oregon'
p1483
g20
sS'clue'
p1484
g20
sS'downtown'
p1485
g7
sS'employee'
p1486
g7
sS'everywhere'
p1487
g20
sS'employed'
p1488
g7
sS'cases'
p1489
g20
sS'given'
p1490
g7
sS'effort'
p1491
g20
sS'behalf'
p1492
g20
sS'op'
p1493
g7
sS'fly'
p1494
g7
sS'organizations'
p1495
g20
sS'douche'
p1496
g20
sS'deserved'
p1497
g20
sS'pushed'
p1498
g20
sS'avoiding'
p1499
g20
sS'originally'
p1500
g7
sS'pretend'
p1501
g20
sS'flu'
p1502
g20
sS'soul'
p1503
g7
sS'believes'
p1504
g20
sS'districts'
p1505
g20
sS'wallet'
p1506
g7
sS'labeled'
p1507
g20
sS'minimum'
p1508
g7
sS'incidents'
p1509
g20
sS'awareness'
p1510
g7
sS'cam'
p1511
g7
sS'believed'
p1512
g20
sS'making'
p1513
g7
sS'metal'
p1514
g7
sS'carolina'
p1515
g7
sS'slightest'
p1516
g20
sS'heart'
p1517
g20
sS'crazy'
p1518
g20
sS'months'
p1519
g7
sS'cite'
p1520
g7
sS'figure'
p1521
g20
sS'disagreeing'
p1522
g7
sS'lobbying'
p1523
g7
sS'subsidies'
p1524
g7
sS'confused'
p1525
g20
sS'agent'
p1526
g20
sS'suspects'
p1527
g20
sS'sample'
p1528
g20
sS'unarmed'
p1529
g20
sS'dropped'
p1530
g20
sS'council'
p1531
g7
sS'allowed'
p1532
g20
sS'offense'
p1533
g20
sS'counting'
p1534
g20
sS'stole'
p1535
g20
sS'occur'
p1536
g20
sS'english'
p1537
g7
sS'bigot'
p1538
g20
sS'productive'
p1539
g7
sS'requirements'
p1540
g20
sS'bankrupt'
p1541
g20
sS'fortunately'
p1542
g20
sS'discussion'
p1543
g7
sS'club'
p1544
g7
sS'dinner'
p1545
g7
sS'chemical'
p1546
g20
sS'immune'
p1547
g20
sS'sunday'
p1548
g7
sS'actual'
p1549
g7
sS'fourth'
p1550
g20
sS'nyc'
p1551
g7
sS'youth'
p1552
g7
sS'speaks'
p1553
g20
sS'economy'
p1554
g7
sS'map'
p1555
g7
sS'product'
p1556
g7
sS'irrational'
p1557
g20
sS'convincing'
p1558
g7
sS'information'
p1559
g7
sS'may'
p1560
g20
sS'max'
p1561
g20
sS'sacrifice'
p1562
g7
sS'fed'
p1563
g7
sS'southern'
p1564
g7
sS'spot'
p1565
g7
sS'islamic'
p1566
g20
sS'membership'
p1567
g7
sS'4th'
p1568
g20
sS'clients'
p1569
g7
sS'designed'
p1570
g20
sS'improving'
p1571
g20
sS'such'
p1572
g20
sS'suck'
p1573
g7
sS'employers'
p1574
g7
sS'revealed'
p1575
g20
sS'grow'
p1576
g7
sS'goal'
p1577
g7
sS'classroom'
p1578
g7
sS'stress'
p1579
g20
sS'natural'
p1580
g20
sS'remember'
p1581
g20
sS'moments'
p1582
g20
sS'conscious'
p1583
g7
sS'whenever'
p1584
g20
sS'maybe'
p1585
g20
sS'carriers'
p1586
g7
sS'made'
p1587
g7
sS'st'
p1588
g7
sS'inform'
p1589
g20
sS'switch'
p1590
g7
sS'jail'
p1591
g20
sS'block'
p1592
g7
sS'spray'
p1593
g7
sS'african'
p1594
g20
sS'representation'
p1595
g20
sS'arrived'
p1596
g7
sS'pulled'
p1597
g20
sS'travel'
p1598
g7
sS'talk'
p1599
g20
sS'typical'
p1600
g20
sS'exclusive'
p1601
g7
sS'breaking'
p1602
g20
sS'shield'
p1603
g7
sS'correlation'
p1604
g20
sS'indeed'
p1605
g7
sS'pointed'
p1606
g7
sS'mainly'
p1607
g20
sS'unacceptable'
p1608
g20
sS'entity'
p1609
g20
sS'professors'
p1610
g7
sS'brain'
p1611
g20
sS'stayed'
p1612
g7
sS'statistical'
p1613
g7
sS'cuts'
p1614
g7
sS'argued'
p1615
g20
sS'managers'
p1616
g7
sS'cold'
p1617
g7
sS'still'
p1618
g20
sS'worship'
p1619
g7
sS'blocked'
p1620
g7
sS'wal-mart'
p1621
g7
sS'police'
p1622
g20
sS'monitor'
p1623
g7
sS'acknowledge'
p1624
g20
sS'interesting'
p1625
g20
sS'terrorists'
p1626
g20
sS'hot'
p1627
g7
sS'forms'
p1628
g20
sS'civil'
p1629
g20
sS'window'
p1630
g7
sS'offers'
p1631
g7
sS'suspicion'
p1632
g20
sS'policy'
p1633
g7
sS'ours'
p1634
g20
sS'msnbc'
p1635
g7
sS'main'
p1636
g20
sS'decades'
p1637
g20
sS'into'
p1638
g20
sS'texas'
p1639
g20
sS'happened'
p1640
g20
sS'busy'
p1641
g7
sS'non'
p1642
g20
sS'within'
p1643
g20
sS'finance'
p1644
g7
sS'views'
p1645
g20
sS'smarter'
p1646
g20
sS'100,000'
p1647
g20
sS'killer'
p1648
g20
sS'hilarious'
p1649
g7
sS'sooner'
p1650
g20
sS'nation'
p1651
g20
sS'moron'
p1652
g20
sS'touching'
p1653
g20
sS'taliban'
p1654
g20
sS'kkk'
p1655
g20
sS'half'
p1656
g20
sS'feature'
p1657
g7
sS'now'
p1658
g20
sS'bullshit'
p1659
g20
sS'nor'
p1660
g20
sS'wont'
p1661
g20
sS'execute'
p1662
g20
sS'equality'
p1663
g20
sS'trucks'
p1664
g7
sS'james'
p1665
g7
sS'drop'
p1666
g20
sS'leak'
p1667
g7
sS'realistic'
p1668
g20
sS'bat'
p1669
g7
sS'rock'
p1670
g7
sS'entirely'
p1671
g20
sS'quarter'
p1672
g20
sS'em'
p1673
g7
sS'square'
p1674
g20
sS'christian'
p1675
g7
sS'significantly'
p1676
g20
sS'challenged'
p1677
g20
sS'ed'
p1678
g7
sS'yeah'
p1679
g7
sS'fires'
p1680
g20
sS'catching'
p1681
g20
sS'organic'
p1682
g7
sS'entering'
p1683
g7
sS'year'
p1684
g7
sS'eu'
p1685
g20
sS'illinois'
p1686
g20
sS'happen'
p1687
g20
sS'avoided'
p1688
g20
sS'pills'
p1689
g20
sS'intended'
p1690
g7
sS'canada'
p1691
g20
sS'living'
p1692
g7
sS'ultimately'
p1693
g20
sS'accomplish'
p1694
g20
sS'100k'
p1695
g7
sS'rioters'
p1696
g20
sS'3rd'
p1697
g20
sS'factors'
p1698
g20
sS'profit'
p1699
g7
sS'furthermore'
p1700
g20
sS'factory'
p1701
g20
sS'generation'
p1702
g7
sS'increase'
p1703
g20
sS'nurse'
p1704
g7
sS'seriously'
p1705
g20
sS'protections'
p1706
g20
sS'trauma'
p1707
g20
sS'rational'
p1708
g7
sS'internet'
p1709
g7
sS'suggesting'
p1710
g20
sS'arrive'
p1711
g7
sS'sweet'
p1712
g7
sS'viable'
p1713
g7
sS'she'
p1714
g7
sS'earlier'
p1715
g7
sS'theory'
p1716
g20
sS'wan'
p1717
g7
sS'cars'
p1718
g7
sS'million'
p1719
g20
sS'material'
p1720
g7
sS'possibility'
p1721
g20
sS'quite'
p1722
g20
sS'dig'
p1723
g7
sS'complicated'
p1724
g20
sS'lab'
p1725
g7
sS'plea'
p1726
g20
sS'ohio'
p1727
g7
sS'obligation'
p1728
g20
sS'cough'
p1729
g20
sS'marine'
p1730
g7
sS'inevitable'
p1731
g20
sS'card'
p1732
g7
sS'care'
p1733
g7
sS'partner'
p1734
g7
sS'advance'
p1735
g7
sS'training'
p1736
g7
sS'language'
p1737
g7
sS'locations'
p1738
g7
sS'discussing'
p1739
g7
sS'british'
p1740
g7
sS'honest'
p1741
g7
sS'motion'
p1742
g20
sS'thing'
p1743
g20
sS'plane'
p1744
g7
sS'place'
p1745
g20
sS'massive'
p1746
g7
sS'swing'
p1747
g7
sS'star'
p1748
g7
sS'think'
p1749
g20
sS'frequent'
p1750
g20
sS'first'
p1751
g20
sS'blind'
p1752
g20
sS'info'
p1753
g7
sS'initial'
p1754
g7
sS'saving'
p1755
g7
sS'fleeing'
p1756
g20
sS'spoken'
p1757
g7
sS'clause'
p1758
g20
sS'btw'
p1759
g7
sS'yourself'
p1760
g20
sS'americans'
p1761
g20
sS'long'
p1762
g20
sS'directly'
p1763
g20
sS'president'
p1764
g20
sS'vote'
p1765
g20
sS'impossible'
p1766
g20
sS'sounds'
p1767
g20
sS'drove'
p1768
g20
sS'open'
p1769
g7
sS'george'
p1770
g7
sS'millions'
p1771
g20
sS'city'
p1772
g7
sS'little'
p1773
g20
sS'necessarily'
p1774
g20
sS'officials'
p1775
g20
sS'silent'
p1776
g7
sS'district'
p1777
g20
sS'occupy'
p1778
g20
sS'caught'
p1779
g20
sS'trillion'
p1780
g20
sS'dressed'
p1781
g7
sS'remotely'
p1782
g20
sS'anyone'
p1783
g20
sS'indicate'
p1784
g7
sS'2'
p1785
g20
sS'tragic'
p1786
g20
sS'terrifying'
p1787
g20
sS'lobbyists'
p1788
g20
sS'articles'
p1789
g7
sS'welfare'
p1790
g7
sS'legally'
p1791
g20
sS'white'
p1792
g20
sS'national'
p1793
g7
sS'williams'
p1794
g7
sS'gives'
p1795
g20
sS'eyes'
p1796
g20
sS'trayvon'
p1797
g20
sS'mostly'
p1798
g20
sS'uninformed'
p1799
g20
sS'brains'
p1800
g20
sS'sony'
p1801
g7
sS'proving'
p1802
g20
sS'accurately'
p1803
g20
sS'resulted'
p1804
g20
sS'dudes'
p1805
g20
sS'ridiculous'
p1806
g20
sS'inmates'
p1807
g20
sS'butt'
p1808
g7
sS'seat'
p1809
g7
sS'holder'
p1810
g20
sS'than'
p1811
g20
sS'population'
p1812
g20
sS'11'
p1813
g20
sS'wide'
p1814
g20
sS'13'
p1815
g20
sS'cartels'
p1816
g20
sS'15'
p1817
g20
sS'unfortunately'
p1818
g20
sS'17'
p1819
g7
sS'16'
p1820
g20
sS'depressed'
p1821
g20
sS'18'
p1822
g7
sS'require'
p1823
g20
sS'summary'
p1824
g7
sS'section'
p1825
g7
sS'rehab'
p1826
g20
sS'protected'
p1827
g20
sS'knives'
p1828
g7
sS'apples'
p1829
g20
sS'were'
p1830
g20
sS'cards'
p1831
g7
sS'tag'
p1832
g7
sS'outcome'
p1833
g20
sS'oath'
p1834
g7
sS'russia'
p1835
g20
sS'published'
p1836
g7
sS'questionable'
p1837
g20
sS'addressing'
p1838
g20
sS'illness'
p1839
g20
sS'san'
p1840
g7
sS'investors'
p1841
g7
sS'appreciate'
p1842
g7
sS'pro'
p1843
g20
sS'parking'
p1844
g7
sS'turned'
p1845
g20
sS'marijuana'
p1846
g20
sS'slap'
p1847
g20
sS'dash'
p1848
g7
sS'medical'
p1849
g7
sS'say'
p1850
g20
sS'conspiracy'
p1851
g20
sS'buried'
p1852
g7
sS'anger'
p1853
g20
sS'sells'
p1854
g7
sS'recover'
p1855
g20
sS'nazi'
p1856
g20
sS'any'
p1857
g20
sS'sat'
p1858
g7
sS'sandwich'
p1859
g7
sS'offering'
p1860
g7
sS'efficient'
p1861
g7
sS'veteran'
p1862
g7
sS'sending'
p1863
g7
sS'ideas'
p1864
g20
sS'shocked'
p1865
g20
sS'note'
p1866
g7
sS'equipment'
p1867
g7
sS'ideal'
p1868
g20
sS'potential'
p1869
g20
sS'take'
p1870
g20
sS'online'
p1871
g7
sS'objective'
p1872
g7
sS'wanting'
p1873
g20
sS'encouraged'
p1874
g20
sS'channel'
p1875
g7
sS'ultimate'
p1876
g7
sS'bitching'
p1877
g20
sS'200'
p1878
g20
sS'begin'
p1879
g20
sS'sure'
p1880
g20
sS'prick'
p1881
g20
sS'opposite'
p1882
g20
sS'track'
p1883
g7
sS'price'
p1884
g7
sS'knew'
p1885
g20
sS'indicted'
p1886
g20
sS'paid'
p1887
g7
sS'insanity'
p1888
g20
sS'assault'
p1889
g20
sS'fcc'
p1890
g7
sS'importantly'
p1891
g7
sS'pleasure'
p1892
g7
sS'complaints'
p1893
g20
sS'knee'
p1894
g20
sS'knowingly'
p1895
g20
sS'pages'
p1896
g7
sS'peaceful'
p1897
g7
sS'forever'
p1898
g20
sS'democratic'
p1899
g20
sS'especially'
p1900
g20
sS'surprising'
p1901
g20
sS'considered'
p1902
g20
sS'average'
p1903
g20
sS'shooter'
p1904
g20
sS'implications'
p1905
g20
sS'drive'
p1906
g20
sS'wing'
p1907
g20
sS'ways'
p1908
g7
sS'chokehold'
p1909
g20
sS'slaves'
p1910
g20
sS'arguably'
p1911
g20
sS'understandable'
p1912
g20
sS'senior'
p1913
g7
sS'typically'
p1914
g20
sS'partisan'
p1915
g20
sS'laws'
p1916
g20
sS'slope'
p1917
g20
sS'replied'
p1918
g7
sS'walking'
p1919
g7
sS'drastically'
p1920
g20
sS'shot'
p1921
g20
sS'regulated'
p1922
g20
sS'show'
p1923
g7
sS'german'
p1924
g7
sS'allegations'
p1925
g20
sS'merit'
p1926
g20
sS'sites'
p1927
g7
sS'discovered'
p1928
g20
sS'legalization'
p1929
g20
sS'bright'
p1930
g7
sS'hack'
p1931
g7
sS'corner'
p1932
g7
sS'aggressive'
p1933
g7
sS'data'
p1934
g7
sS'ground'
p1935
g20
sS'weapons'
p1936
g7
sS'slow'
p1937
g20
sS'ratio'
p1938
g20
sS'favorite'
p1939
g7
sS'title'
p1940
g7
sS'dick'
p1941
g20
sS'proportion'
p1942
g20
sS'enough'
p1943
g20
sS'crime'
p1944
g20
sS'only'
p1945
g20
sS'going'
p1946
g20
sS'believing'
p1947
g20
sS'tipping'
p1948
g7
sS'equipped'
p1949
g7
sS'outrage'
p1950
g20
sS'watching'
p1951
g7
sS'posted'
p1952
g7
sS'congressional'
p1953
g20
sS'dispute'
p1954
g20
sS'fda'
p1955
g20
sS'closed'
p1956
g7
sS'viewpoint'
p1957
g20
sS'get'
p1958
g20
sS'hostage'
p1959
g20
sS'expectation'
p1960
g20
sS'truly'
p1961
g20
sS'ebola'
p1962
g20
sS'killers'
p1963
g20
sS'nearly'
p1964
g20
sS'progress'
p1965
g7
sS'delivery'
p1966
g7
sS'trade'
p1967
g7
sS'unethical'
p1968
g20
sS'teens'
p1969
g7
sS'celebrate'
p1970
g7
sS'secondary'
p1971
g7
sS'prime'
p1972
g7
sS'regarding'
p1973
g20
sS'reading'
p1974
g7
sS'resource'
p1975
g7
sS'girl'
p1976
g7
sS'held'
p1977
g20
sS'malaysian'
p1978
g7
sS'isnt'
p1979
g7
sS'checks'
p1980
g7
sS'naked'
p1981
g7
sS'experience'
p1982
g20
sS'stupid'
p1983
g20
sS'source'
p1984
g7
sS'bombs'
p1985
g20
sS'liable'
p1986
g20
sS'worries'
p1987
g7
sS'bought'
p1988
g7
sS'where'
p1989
g20
sS'husband'
p1990
g7
sS'wiki'
p1991
g7
sS'ignored'
p1992
g7
sS'declared'
p1993
g20
sS'learn'
p1994
g7
sS'enjoyed'
p1995
g7
sS'physically'
p1996
g20
sS'violated'
p1997
g20
sS'signs'
p1998
g20
sS'comparable'
p1999
g20
sS'conversations'
p2000
g7
sS'relative'
p2001
g7
sS'elected'
p2002
g20
sS'actively'
p2003
g20
sS'college'
p2004
g7
sS'anyways'
p2005
g7
sS'hell'
p2006
g20
sS'tape'
p2007
g7
sS'surgery'
p2008
g20
sS'connected'
p2009
g7
sS'mcdonalds'
p2010
g7
sS'wonder'
p2011
g20
sS'um'
p2012
g7
sS'fails'
p2013
g20
sS'brave'
p2014
g7
sS'voluntary'
p2015
g20
sS'mortgage'
p2016
g7
sS'farmers'
p2017
g7
sS'federal'
p2018
g20
sS'jumped'
p2019
g20
sS'senate'
p2020
g20
sS'boy'
p2021
g7
sS'representatives'
p2022
g20
sS'label'
p2023
g7
sS'vaccines'
p2024
g20
sS'older'
p2025
g7
sS'3'
p2026
g20
sS'literal'
p2027
g7
sS'john'
p2028
g7
sS'between'
p2029
g20
sS'streaming'
p2030
g7
sS'justified'
p2031
g20
sS'bombing'
p2032
g20
sS'across'
p2033
g20
sS'uh'
p2034
g7
sS'affordable'
p2035
g7
sS'notice'
p2036
g20
sS'infrastructure'
p2037
g7
sS'jobs'
p2038
g7
sS'mature'
p2039
g7
sS'useful'
p2040
g7
sS'25'
p2041
g20
sS'screen'
p2042
g7
sS'genetic'
p2043
g7
sS'points'
p2044
g7
sS'style'
p2045
g7
sS'killing'
p2046
g20
sS'blame'
p2047
g20
sS'offices'
p2048
g7
sS'hurts'
p2049
g20
sS'article'
p2050
g7
sS'cities'
p2051
g20
sS'come'
p2052
g20
sS'thanksgiving'
p2053
g7
sS'reaction'
p2054
g20
sS'repeating'
p2055
g20
sS'efficiency'
p2056
g7
sS'many'
p2057
g20
sS'region'
p2058
g20
sS'hours'
p2059
g7
sS'according'
p2060
g7
sS'contract'
p2061
g7
sS'somewhere'
p2062
g7
sS'workplace'
p2063
g7
sS'assaulting'
p2064
g20
sS'senator'
p2065
g7
sS'expression'
p2066
g20
sS'comes'
p2067
g20
sS'nearby'
p2068
g7
sS'duty'
p2069
g20
sS'among'
p2070
g20
sS'afterwards'
p2071
g7
sS'cancer'
p2072
g20
sS'passenger'
p2073
g7
sS'color'
p2074
g20
sS'effective'
p2075
g7
sS'pot'
p2076
g20
sS'period'
p2077
g20
sS'insist'
p2078
g20
sS'accusation'
p2079
g20
sS'homosexuality'
p2080
g20
sS'anti'
p2081
g20
sS'65'
p2082
g7
sS'learning'
p2083
g7
sS'approval'
p2084
g20
sS'cancel'
p2085
g7
sS'constant'
p2086
g20
sS'bizarre'
p2087
g20
sS'poll'
p2088
g20
sS'polite'
p2089
g7
sS'boat'
p2090
g7
sS'considering'
p2091
g20
sS'destroyed'
p2092
g7
sS'unusual'
p2093
g20
sS'trolling'
p2094
g7
sS'cares'
p2095
g20
sS'stretch'
p2096
g20
sS'west'
p2097
g7
sS'keys'
p2098
g7
sS'informed'
p2099
g7
sS'airlines'
p2100
g7
sS'mark'
p2101
g7
sS'breath'
p2102
g20
sS'punished'
p2103
g20
sS'combined'
p2104
g20
sS'judging'
p2105
g7
sS'borders'
p2106
g20
sS'hardly'
p2107
g20
sS'500'
p2108
g20
sS'systems'
p2109
g7
sS'wants'
p2110
g20
sS'wonderful'
p2111
g7
sS'direction'
p2112
g20
sS'educated'
p2113
g7
sS'transportation'
p2114
g7
sS'robbed'
p2115
g20
sS'influence'
p2116
g20
sS'thousand'
p2117
g20
sS'formed'
p2118
g20
sS'bro'
p2119
g7
sS'wounds'
p2120
g20
sS'photos'
p2121
g7
sS'commenting'
p2122
g7
sS'wake'
p2123
g7
sS'covers'
p2124
g7
sS'suspected'
p2125
g20
sS'careful'
p2126
g7
sS'irrelevant'
p2127
g20
sS'hidden'
p2128
g7
sS'those'
p2129
g20
sS'countless'
p2130
g20
sS'sound'
p2131
g20
sS'myself'
p2132
g20
sS'developing'
p2133
g7
sS'these'
p2134
g20
sS'advocating'
p2135
g20
sS'worried'
p2136
g7
sS'definition'
p2137
g7
sS'engineering'
p2138
g7
sS'professional'
p2139
g7
sS'trick'
p2140
g7
sS'w'
p2141
g7
sS'warning'
p2142
g7
sS'ongoing'
p2143
g20
sS'policies'
p2144
g20
sS'center'
p2145
g7
sS'scum'
p2146
g20
sS'situation'
p2147
g20
sS'shops'
p2148
g7
sS'margin'
p2149
g20
sS'operate'
p2150
g20
sS'ive'
p2151
g20
sS'eventually'
p2152
g20
sS'park'
p2153
g7
sS'soil'
p2154
g7
sS'engaged'
p2155
g20
sS'coffee'
p2156
g7
sS'sleeping'
p2157
g7
sS'strain'
p2158
g20
sS'sudden'
p2159
g20
sS'punched'
p2160
g20
sS'minds'
p2161
g20
sS'ironic'
p2162
g20
sS'motivated'
p2163
g20
sS'property'
p2164
g7
sS'technology'
p2165
g7
sS'everyday'
p2166
g20
sS'worry'
p2167
g20
sS'movements'
p2168
g20
sS'bags'
p2169
g20
sS'different'
p2170
g20
sS'missiles'
p2171
g7
sS'develop'
p2172
g20
sS'harsh'
p2173
g20
sS'doctor'
p2174
g7
sS'media'
p2175
g20
sS'granted'
p2176
g20
sS'seeking'
p2177
g20
sS'locking'
p2178
g20
sS'same'
p2179
g20
sS'surveillance'
p2180
g20
sS'food'
p2181
g7
sS'consumer'
p2182
g7
sS'speech'
p2183
g20
sS'arguments'
p2184
g7
sS'buys'
p2185
g20
sS'struggling'
p2186
g20
sS'document'
p2187
g7
sS'events'
p2188
g20
sS'status'
p2189
g20
sS'willingly'
p2190
g20
sS'investigated'
p2191
g20
sS'centuries'
p2192
g20
sS'closest'
p2193
g20
sS'driver'
p2194
g20
sS'incarceration'
p2195
g20
sS'weed'
p2196
g20
sS'driven'
p2197
g20
sS'persons'
p2198
g20
sS'running'
p2199
g20
sS'fruit'
p2200
g7
sS'anecdotal'
p2201
g20
sS'changing'
p2202
g20
sS'totally'
p2203
g20
sS'tradition'
p2204
g7
sS'mentally'
p2205
g20
sS'perfectly'
p2206
g7
sS'rain'
p2207
g7
sS'tracking'
p2208
g7
sS'theater'
p2209
g7
sS'whose'
p2210
g7
sS'member'
p2211
g7
sS'largely'
p2212
g20
sS'charges'
p2213
g20
sS'constitutional'
p2214
g20
sS'magical'
p2215
g20
sS'lucky'
p2216
g7
sS'accountable'
p2217
g20
sS'without'
p2218
g20
sS'solve'
p2219
g7
sS'relief'
p2220
g20
sS'bottle'
p2221
g7
sS'communications'
p2222
g7
sS'inability'
p2223
g20
sS'republicans'
p2224
g20
sS'otherwise'
p2225
g20
sS'nah'
p2226
g7
sS'bodies'
p2227
g7
sS'charged'
p2228
g20
sS'gates'
p2229
g7
sS'morons'
p2230
g20
sS'peace'
p2231
g7
sS'gangs'
p2232
g20
sS'pakistan'
p2233
g7
sS'being'
p2234
g20
sS'when'
p2235
g20
sS'unconstitutional'
p2236
g20
sS'actions'
p2237
g20
sS'backs'
p2238
g20
sS'communities'
p2239
g7
sS'violent'
p2240
g20
sS'relevant'
p2241
g7
sS'kill'
p2242
g20
sS'aspect'
p2243
g20
sS'positions'
p2244
g7
sS'touch'
p2245
g20
sS'n'
p2246
g7
sS'speed'
p2247
g7
sS'blow'
p2248
g20
sS'death'
p2249
g20
sS'legitimately'
p2250
g20
sS'feminist'
p2251
g20
sS'thinking'
p2252
g20
sS'seems'
p2253
g20
sS'except'
p2254
g20
sS'wet'
p2255
g7
sS'blog'
p2256
g7
sS'lets'
p2257
g7
sS'setting'
p2258
g20
sS'pile'
p2259
g20
sS'4'
p2260
g20
sS'role'
p2261
g7
sS'struck'
p2262
g20
sS'dicks'
p2263
g20
sS'pill'
p2264
g20
sS'feminism'
p2265
g20
sS'real'
p2266
g20
sS'available'
p2267
g7
sS'starving'
p2268
g20
sS'aspects'
p2269
g20
sS'around'
p2270
g20
sS'kills'
p2271
g20
sS'rules'
p2272
g20
sS'papers'
p2273
g7
sS'virginia'
p2274
g20
sS'admitting'
p2275
g20
sS'early'
p2276
g7
sS'working'
p2277
g7
sS'inflation'
p2278
g7
sS'traffic'
p2279
g20
sS'pop'
p2280
g7
sS'listening'
p2281
g7
sS'justice'
p2282
g7
sS'world'
p2283
g20
sS'execution'
p2284
g20
sS'disappointed'
p2285
g20
sS'vague'
p2286
g7
sS'dare'
p2287
g20
sS'ruled'
p2288
g20
sS'60'
p2289
g20
sS'stranger'
p2290
g7
sS'pounds'
p2291
g20
sS'collective'
p2292
g20
sS'pregnant'
p2293
g7
sS'serves'
p2294
g20
sS'server'
p2295
g7
sS'facing'
p2296
g20
sS'benefit'
p2297
g20
sS'donations'
p2298
g7
sS'either'
p2299
g20
sS'robbery'
p2300
g20
sS'offenders'
p2301
g20
sS'served'
p2302
g7
sS'voluntarily'
p2303
g20
sS'sidewalk'
p2304
g7
sS'reduced'
p2305
g20
sS'homicides'
p2306
g20
sS'jews'
p2307
g20
sS'verbal'
p2308
g20
sS'exposed'
p2309
g20
sS'existing'
p2310
g7
sS'competition'
p2311
g7
sS'japanese'
p2312
g20
sS'firearms'
p2313
g20
sS'table'
p2314
g7
sS'images'
p2315
g7
sS'racial'
p2316
g20
sS'thinks'
p2317
g20
sS'gross'
p2318
g20
sS'courses'
p2319
g7
sS'legal'
p2320
g7
sS'recorded'
p2321
g7
sS'overly'
p2322
g20
sS'stops'
p2323
g20
sS'conservative'
p2324
g20
sS'cannabis'
p2325
g20
sS'throat'
p2326
g20
sS'critical'
p2327
g7
sS'exit'
p2328
g7
sS'custody'
p2329
g7
sS'provides'
p2330
g7
sS'provider'
p2331
g7
sS'moderate'
p2332
g20
sS'911'
p2333
g20
sS'decent'
p2334
g7
sS'knife'
p2335
g7
sS'refer'
p2336
g7
sS'turkey'
p2337
g7
sS'biased'
p2338
g7
sS'football'
p2339
g7
sS'scientific'
p2340
g7
sS'power'
p2341
g20
sS'sensible'
p2342
g7
sS'seconds'
p2343
g7
sS'problems'
p2344
g20
sS'equivalent'
p2345
g20
sS'communicate'
p2346
g7
sS'arts'
p2347
g7
sS'tuition'
p2348
g7
sS'hunt'
p2349
g7
sS'broken'
p2350
g20
sS'mountain'
p2351
g7
sS'leadership'
p2352
g7
sS'innocence'
p2353
g20
sS'contracts'
p2354
g7
sS'refers'
p2355
g7
sS'stereotypes'
p2356
g20
sS'punishments'
p2357
g20
sS'released'
p2358
g7
sS'manufacturer'
p2359
g7
sS'comparison'
p2360
g20
sS'stone'
p2361
g7
sS'patent'
p2362
g7
sS'ok'
p2363
g7
sS'stations'
p2364
g7
sS'island'
p2365
g7
sS'industry'
p2366
g7
sS'violence'
p2367
g20
sS'discussed'
p2368
g20
sS'meaning'
p2369
g7
sS'greater'
p2370
g20
sS'meal'
p2371
g7
sS'ideology'
p2372
g20
sS'muslims'
p2373
g20
sS'medicare'
p2374
g7
sS'greatly'
p2375
g20
sS'pockets'
p2376
g20
sS'act'
p2377
g20
sS'mixed'
p2378
g20
sS'invested'
p2379
g7
sS'referred'
p2380
g7
sS'backup'
p2381
g7
sS'road'
p2382
g7
sS'fallacy'
p2383
g7
sS'client'
p2384
g7
sS'her'
p2385
g7
sS'protests'
p2386
g20
sS'burning'
p2387
g7
sS'flawed'
p2388
g20
sS'whites'
p2389
g20
sS'communication'
p2390
g7
sS'spreading'
p2391
g20
sS'scores'
p2392
g7
sS'garner'
p2393
g20
sS'rolling'
p2394
g7
sS'nicotine'
p2395
g20
sS'rising'
p2396
g20
sS'homeless'
p2397
g20
sS'parties'
p2398
g20
sS'elementary'
p2399
g7
sS'valuable'
p2400
g7
sS'nowadays'
p2401
g20
sS'intervention'
p2402
g20
sS'cared'
p2403
g7
sS'prepare'
p2404
g20
sS'area'
p2405
g7
sS'removing'
p2406
g7
sS'strictly'
p2407
g20
sS'alleged'
p2408
g20
sS'lol'
p2409
g7
sS'christianity'
p2410
g7
sS'strip'
p2411
g7
sS'start'
p2412
g20
sS'cats'
p2413
g7
sS'racist'
p2414
g20
sS'low'
p2415
g20
sS'lot'
p2416
g20
sS'series'
p2417
g7
sS'besides'
p2418
g7
sS'cultures'
p2419
g20
sS'played'
p2420
g7
sS'bubble'
p2421
g7
sS'strict'
p2422
g20
sS'delicious'
p2423
g7
sS'complete'
p2424
g20
sS'tone'
p2425
g7
sS'reduce'
p2426
g20
sS'regard'
p2427
g20
sS'societal'
p2428
g20
sS'mh370'
p2429
g7
sS'land'
p2430
g7
sS'ended'
p2431
g20
sS'survived'
p2432
g20
sS'implies'
p2433
g7
sS'trying'
p2434
g20
sS'buying'
p2435
g7
sS'happening'
p2436
g20
sS'abused'
p2437
g20
sS'pull'
p2438
g20
sS'rush'
p2439
g20
sS'fraud'
p2440
g20
sS'applying'
p2441
g7
sS'improved'
p2442
g20
sS'rage'
p2443
g20
sS'default'
p2444
g7
sS'vice'
p2445
g7
sS'bucket'
p2446
g7
sS'message'
p2447
g7
sS'local'
p2448
g7
sS'dirty'
p2449
g20
sS'abuses'
p2450
g20
sS'grasp'
p2451
g7
sS'politically'
p2452
g20
sS'compromise'
p2453
g7
sS'agree'
p2454
g20
sS'connect'
p2455
g7
sS'strongly'
p2456
g20
sS'toilet'
p2457
g20
sS'his'
p2458
g7
sS'vehicles'
p2459
g7
sS'money'
p2460
g20
sS'citizenship'
p2461
g20
sS'videos'
p2462
g7
sS'babies'
p2463
g7
sS'taste'
p2464
g20
sS'certain'
p2465
g20
sS'stealing'
p2466
g7
sS'am'
p2467
g20
sS'al'
p2468
g20
sS'deep'
p2469
g20
sS'general'
p2470
g20
sS'daily'
p2471
g7
sS'file'
p2472
g7
sS'walks'
p2473
g20
sS'girlfriend'
p2474
g7
sS'politics'
p2475
g20
sS'moves'
p2476
g20
sS'hospitals'
p2477
g7
sS'spends'
p2478
g20
sS'film'
p2479
g7
sS'fill'
p2480
g20
sS'incorrect'
p2481
g7
sS'again'
p2482
g20
sS'options'
p2483
g7
sS'firm'
p2484
g7
sS'idiot'
p2485
g20
sS'deserve'
p2486
g20
sS'drivers'
p2487
g20
sS'abiding'
p2488
g7
sS'storage'
p2489
g7
sS'graduate'
p2490
g7
sS'rubber'
p2491
g7
sS'field'
p2492
g7
sS'valid'
p2493
g20
sS'5'
p2494
g20
sS'lifestyle'
p2495
g7
sS'someones'
p2496
g7
sS'forcing'
p2497
g20
sS'mentions'
p2498
g7
sS'overtime'
p2499
g7
sS'immunity'
p2500
g20
sS'karma'
p2501
g7
sS'<SPECIAL>'
p2502
g7
sS'trip'
p2503
g7
sS'beef'
p2504
g7
sS'hey'
p2505
g7
sS'congress'
p2506
g20
sS'separate'
p2507
g20
sS'students'
p2508
g7
sS'time'
p2509
g20
sS'reached'
p2510
g7
sS'includes'
p2511
g20
sS'important'
p2512
g20
sS'bullets'
p2513
g7
sS'accounts'
p2514
g7
sS'fresh'
p2515
g7
sS'included'
p2516
g20
sS'scrutiny'
p2517
g20
sS'pool'
p2518
g7
sS'psychology'
p2519
g7
sS'building'
p2520
g7
sS'shipping'
p2521
g7
sS'remote'
p2522
g7
sS'assets'
p2523
g7
sS'calls'
p2524
g7
sS'wife'
p2525
g7
sS'requires'
p2526
g20
sS'odds'
p2527
g20
sS'wifi'
p2528
g7
sS'websites'
p2529
g7
sS'saved'
p2530
g7
sS'mass'
p2531
g20
sS'missouri'
p2532
g20
sS'alright'
p2533
g7
sS'overseas'
p2534
g20
sS'ammo'
p2535
g7
sS'starting'
p2536
g20
sS'original'
p2537
g7
sS'freaking'
p2538
g7
sS'represent'
p2539
g20
sS'9/11'
p2540
g20
sS'cameras'
p2541
g7
sS'liar'
p2542
g20
sS'consider'
p2543
g20
sS'chinese'
p2544
g7
sS'caused'
p2545
g20
sS'lack'
p2546
g7
sS'concern'
p2547
g20
sS'month'
p2548
g7
sS'founded'
p2549
g20
sS'systemic'
p2550
g20
sS'assessment'
p2551
g7
sS'talks'
p2552
g20
sS'follow'
p2553
g20
sS'faster'
p2554
g20
sS'wash'
p2555
g20
sS'reasoning'
p2556
g7
sS'causes'
p2557
g20
sS'strangers'
p2558
g7
sS'apartment'
p2559
g7
sS'referring'
p2560
g7
sS'hunting'
p2561
g7
sS'tv'
p2562
g7
sS'costco'
p2563
g7
sS'switched'
p2564
g7
sS'cheney'
p2565
g20
sS'laid'
p2566
g7
sS'opportunities'
p2567
g7
sS'former'
p2568
g7
sS'riots'
p2569
g20
sS'hiring'
p2570
g7
sS'tl'
p2571
g7
sS'program'
p2572
g7
sS'14'
p2573
g20
sS'health'
p2574
g7
sS'pilot'
p2575
g7
sS'norm'
p2576
g20
sS'ta'
p2577
g7
sS'activities'
p2578
g20
sS'woman'
p2579
g7
sS'premium'
p2580
g7
sS'worse'
p2581
g20
sS'sitting'
p2582
g7
sS'far'
p2583
g20
sS'horror'
p2584
g20
sS'fat'
p2585
g20
sS'resistance'
p2586
g20
sS'personnel'
p2587
g7
sS'fan'
p2588
g7
sS'minded'
p2589
g20
sS'decide'
p2590
g20
sS'fall'
p2591
g20
sS'reply'
p2592
g7
sS'abusing'
p2593
g20
sS'ticket'
p2594
g20
sS'difference'
p2595
g20
sS'condition'
p2596
g20
sS'treating'
p2597
g20
sS'gov'
p2598
g7
sS'cable'
p2599
g7
sS'mothers'
p2600
g7
sS'louis'
p2601
g7
sS'celebrity'
p2602
g7
sS'misinformation'
p2603
g20
sS'list'
p2604
g20
sS'applicable'
p2605
g20
sS'buddies'
p2606
g7
sS'large'
p2607
g20
sS'sand'
p2608
g7
sS'sane'
p2609
g7
sS'saudi'
p2610
g20
sS'small'
p2611
g20
sS'biological'
p2612
g20
sS'economically'
p2613
g20
sS'manslaughter'
p2614
g20
sS'neighborhood'
p2615
g7
sS'ten'
p2616
g20
sS'tea'
p2617
g7
sS'penalties'
p2618
g20
sS'streets'
p2619
g7
sS'cash'
p2620
g7
sS'past'
p2621
g20
sS'19'
p2622
g7
sS'rate'
p2623
g20
sS'arizona'
p2624
g20
sS'design'
p2625
g7
sS'perspective'
p2626
g20
sS'lawyer'
p2627
g7
sS'pass'
p2628
g7
sS'coverage'
p2629
g7
sS'further'
p2630
g20
sS'nba'
p2631
g7
sS'functioning'
p2632
g7
sS'investment'
p2633
g7
sS'returned'
p2634
g7
sS'bully'
p2635
g20
sS'jesus'
p2636
g7
sS'90s'
p2637
g7
sS'sue'
p2638
g20
sS'stood'
p2639
g7
sS'sub'
p2640
g7
sS'consumers'
p2641
g7
sS'witnessed'
p2642
g20
sS'deeply'
p2643
g20
sS'sum'
p2644
g7
sS'dirt'
p2645
g20
sS'fucks'
p2646
g20
sS'emotions'
p2647
g20
sS'witnesses'
p2648
g20
sS'public'
p2649
g7
sS'version'
p2650
g7
sS'scientists'
p2651
g7
sS'slippery'
p2652
g20
sS'learned'
p2653
g7
sS'confirm'
p2654
g7
sS'guns'
p2655
g20
sS'movement'
p2656
g20
sS'edited'
p2657
g7
sS'full'
p2658
g7
sS'iran'
p2659
g20
sS'loose'
p2660
g7
sS'supposedly'
p2661
g20
sS'answers'
p2662
g7
sS'forgive'
p2663
g7
sS'behaviour'
p2664
g20
sS'newspaper'
p2665
g7
sS'suicide'
p2666
g20
sS'threads'
p2667
g7
sS'investigating'
p2668
g20
sS'i.e'
p2669
g20
sS'method'
p2670
g7
sS'iraq'
p2671
g20
sS'tragedy'
p2672
g20
sS'search'
p2673
g20
sS'bible'
p2674
g7
sS'prosecutors'
p2675
g20
sS'conviction'
p2676
g20
sS'engineers'
p2677
g7
sS'allows'
p2678
g20
sS'qualify'
p2679
g7
sS'brutal'
p2680
g20
sS'pics'
p2681
g7
sS'los'
p2682
g7
sS'prior'
p2683
g20
sS'amount'
p2684
g20
sS'base'
p2685
g7
sS'arent'
p2686
g7
sS'pick'
p2687
g20
sS'action'
p2688
g20
sS'barely'
p2689
g7
sS'murdering'
p2690
g20
sS'narrow'
p2691
g20
sS'concerned'
p2692
g7
sS'sticking'
p2693
g7
sS'via'
p2694
g7
sS'followed'
p2695
g7
sS'thankfully'
p2696
g20
sS'suddenly'
p2697
g20
sS'requiring'
p2698
g20
sS'africa'
p2699
g7
sS'aca'
p2700
g7
sS'backed'
p2701
g20
sS'aimed'
p2702
g7
sS'trained'
p2703
g20
sS'toys'
p2704
g7
sS'pulls'
p2705
g20
sS'resident'
p2706
g20
sS'suits'
p2707
g7
sS'armed'
p2708
g20
sS'teach'
p2709
g7
sS'select'
p2710
g20
sS'readily'
p2711
g7
sS'shareholders'
p2712
g7
sS'strawman'
p2713
g7
sS'eye'
p2714
g20
sS'takes'
p2715
g20
sS'0'
p2716
g7
sS'contains'
p2717
g7
sS'quiet'
p2718
g7
sS'two'
p2719
g20
sS'nfl'
p2720
g7
sS'stepped'
p2721
g20
sS'comparing'
p2722
g20
sS'administrators'
p2723
g7
sS'6'
p2724
g20
sS'shits'
p2725
g20
sS'chicken'
p2726
g7
sS'injury'
p2727
g20
sS'markets'
p2728
g7
sS'minor'
p2729
g20
sS'more'
p2730
g20
sS'teen'
p2731
g7
sS'flat'
p2732
g20
sS'israel'
p2733
g7
sS'door'
p2734
g7
sS'knows'
p2735
g20
sS'substances'
p2736
g20
sS'division'
p2737
g20
sS'company'
p2738
g7
sS'stolen'
p2739
g7
sS'corrected'
p2740
g7
sS'excuse'
p2741
g20
sS'landed'
p2742
g20
sS'controlling'
p2743
g20
sS'basically'
p2744
g20
sS'broke'
p2745
g20
sS'particular'
p2746
g20
sS'known'
p2747
g20
sS'producing'
p2748
g7
sS'maryland'
p2749
g20
sS'glad'
p2750
g7
sS'wealth'
p2751
g7
sS'town'
p2752
g7
sS'hardware'
p2753
g7
sS'none'
p2754
g20
sS'include'
p2755
g20
sS'shared'
p2756
g7
sS'hour'
p2757
g7
sS'offender'
p2758
g20
sS'oversight'
p2759
g20
sS'launch'
p2760
g7
sS'sucks'
p2761
g20
sS'entertainment'
p2762
g7
sS'duh'
p2763
g7
sS'guards'
p2764
g7
sS'offended'
p2765
g20
sS'mall'
p2766
g7
sS'bias'
p2767
g20
sS'sent'
p2768
g7
sS'v'
p2769
g20
sS'knocked'
p2770
g7
sS'dea'
p2771
g20
sS'male'
p2772
g7
sS'broad'
p2773
g7
sS'history'
p2774
g7
sS'beautiful'
p2775
g7
sS'purchases'
p2776
g7
sS'compare'
p2777
g20
sS'computers'
p2778
g7
sS'embarrassing'
p2779
g20
sS'brown'
p2780
g20
sS'final'
p2781
g7
sS'share'
p2782
g20
sS'accept'
p2783
g7
sS'states'
p2784
g20
sS'claimed'
p2785
g20
sS'breathing'
p2786
g20
sS'protects'
p2787
g20
sS'numbers'
p2788
g20
sS'purchased'
p2789
g7
sS'sense'
p2790
g20
sS'libertarian'
p2791
g20
sS'station'
p2792
g7
sS'airplane'
p2793
g7
sS'dress'
p2794
g7
sS'species'
p2795
g20
sS'simple'
p2796
g20
sS'homicide'
p2797
g20
sS'huge'
p2798
g20
sS'needs'
p2799
g20
sS'answer'
p2800
g20
sS'court'
p2801
g20
sS'jerk'
p2802
g7
sS'rather'
p2803
g20
sS'plans'
p2804
g7
sS'acts'
p2805
g20
sS'american'
p2806
g7
sS'dismissed'
p2807
g20
sS'occasionally'
p2808
g20
sS'isps'
p2809
g7
sS'option'
p2810
g7
sS'speeding'
p2811
g20
sS'expecting'
p2812
g20
sS'strong'
p2813
g20
sS'explains'
p2814
g7
sS'rapists'
p2815
g20
sS'plant'
p2816
g7
sS'wind'
p2817
g7
sS'ft'
p2818
g20
sS'tried'
p2819
g20
sS'rude'
p2820
g20
sS'advice'
p2821
g7
sS'par'
p2822
g20
sS'roads'
p2823
g7
sS'questioning'
p2824
g7
sS'reflect'
p2825
g20
sS'replace'
p2826
g7
sS'tries'
p2827
g20
sS'terrorist'
p2828
g20
sS'blood'
p2829
g20
sS'coming'
p2830
g20
sS'invasion'
p2831
g20
sS'ethics'
p2832
g20
sS'response'
p2833
g7
sS'refuse'
p2834
g20
sS'criticize'
p2835
g20
sS'loud'
p2836
g7
sS'shady'
p2837
g20
sS'register'
p2838
g7
sS'children'
p2839
g7
sS'deals'
p2840
g7
sS'anytime'
p2841
g20
sS'coal'
p2842
g20
sS'responsibility'
p2843
g20
sS'fuckin'
p2844
g7
sS'fundamental'
p2845
g20
sS'pay'
p2846
g7
sS'banks'
p2847
g7
sS'monopolies'
p2848
g7
sS'dream'
p2849
g20
sS'playing'
p2850
g7
sS'volume'
p2851
g7
sS'rifles'
p2852
g20
sS'mexican'
p2853
g20
sS'help'
p2854
g20
sS'oh'
p2855
g7
sS'developed'
p2856
g20
sS'username'
p2857
g7
sS'soon'
p2858
g20
sS'installed'
p2859
g7
sS'disabled'
p2860
g20
sS'outraged'
p2861
g20
sS'attitude'
p2862
g20
sS'bigoted'
p2863
g20
sS'through'
p2864
g20
sS'committee'
p2865
g7
sS'committed'
p2866
g20
sS'existence'
p2867
g20
sS'itt'
p2868
g20
sS'suffer'
p2869
g20
sS'its'
p2870
g20
sS'islam'
p2871
g20
sS'24'
p2872
g20
sS'messed'
p2873
g20
sS'26'
p2874
g20
sS'27'
p2875
g20
sS'20'
p2876
g20
sS'21'
p2877
g20
sS'22'
p2878
g20
sS'23'
p2879
g20
sS'pray'
p2880
g7
sS'fined'
p2881
g20
sS'sale'
p2882
g7
sS'28'
p2883
g20
sS'actually'
p2884
g20
sS'symptoms'
p2885
g20
sS'harmless'
p2886
g20
sS'parts'
p2887
g20
sS'ruining'
p2888
g20
sS'disagrees'
p2889
g20
sS'soccer'
p2890
g7
sS'might'
p2891
g20
sS'fines'
p2892
g20
sS'fool'
p2893
g20
sS'hurting'
p2894
g20
sS'good'
p2895
g20
sS'somebody'
p2896
g20
sS'calm'
p2897
g7
sS'yo'
p2898
g7
sS'severely'
p2899
g20
sS'ceo'
p2900
g7
sS'propose'
p2901
g7
sS'males'
p2902
g7
sS'socially'
p2903
g20
sS'slight'
p2904
g20
sS'encouraging'
p2905
g20
sS'walls'
p2906
g7
sS'starbucks'
p2907
g7
sS'outbreak'
p2908
g20
sS'foot'
p2909
g20
sS'complain'
p2910
g20
sS'bigger'
p2911
g20
sS'sucked'
p2912
g20
sS'easily'
p2913
g20
sS'holiday'
p2914
g7
sS'products'
p2915
g7
sS'payer'
p2916
g7
sS'fantasy'
p2917
g20
sS'always'
p2918
g20
sS'level'
p2919
g20
sS'spy'
p2920
g20
sS'tear'
p2921
g7
sS'someone'
p2922
g20
sS'inequality'
p2923
g20
sS'stopped'
p2924
g20
sS'fiber'
p2925
g7
sS'turns'
p2926
g20
sS'inherent'
p2927
g20
sS'shocking'
p2928
g20
sS'obligated'
p2929
g20
sS'button'
p2930
g7
sS'investigators'
p2931
g7
sS'heavy'
p2932
g20
sS'reactions'
p2933
g20
sS'harm'
p2934
g20
sS'everyone'
p2935
g20
sS'england'
p2936
g20
sS'mental'
p2937
g20
sS'weight'
p2938
g20
sS'p'
p2939
g7
sS'short'
p2940
g20
sS'house'
p2941
g7
sS'energy'
p2942
g7
sS'hard'
p2943
g20
sS'oppressed'
p2944
g20
sS'idea'
p2945
g20
sS'accidentally'
p2946
g20
sS'engaging'
p2947
g20
sS'programs'
p2948
g7
sS'putin'
p2949
g20
sS'expect'
p2950
g20
sS'operation'
p2951
g20
sS'beyond'
p2952
g20
sS'event'
p2953
g20
sS'really'
p2954
g20
sS'stands'
p2955
g20
sS'funding'
p2956
g7
sS'alcohol'
p2957
g20
sS'blacks'
p2958
g20
sS'item'
p2959
g7
sS'walked'
p2960
g7
sS'childish'
p2961
g20
sS'since'
p2962
g20
sS'temporary'
p2963
g7
sS'research'
p2964
g7
sS'acting'
p2965
g20
sS'equate'
p2966
g20
sS'safety'
p2967
g7
sS'hill'
p2968
g7
sS'7'
p2969
g20
sS'print'
p2970
g7
sS'issue'
p2971
g20
sS'occurs'
p2972
g20
sS'highway'
p2973
g20
sS'ass'
p2974
g20
sS'reporting'
p2975
g7
sS'belief'
p2976
g20
sS'pathetic'
p2977
g20
sS'circumstance'
p2978
g20
sS'upon'
p2979
g7
sS'enforcing'
p2980
g20
sS'team'
p2981
g7
sS'horse'
p2982
g7
sS'drives'
p2983
g20
sS'houses'
p2984
g7
sS'reason'
p2985
g20
sS'heroin'
p2986
g20
sS'term'
p2987
g7
sS'members'
p2988
g7
sS'imagine'
p2989
g20
sS'ask'
p2990
g20
sS'approach'
p2991
g7
sS'laughable'
p2992
g20
sS'beginning'
p2993
g20
sS'generate'
p2994
g20
sS'thrown'
p2995
g20
sS'director'
p2996
g7
sS'owners'
p2997
g7
sS'benefits'
p2998
g7
sS'thread'
p2999
g7
sS'e.g'
p3000
g20
sS'needing'
p3001
g20
sS'success'
p3002
g7
sS'r/news'
p3003
g7
sS'noted'
p3004
g7
sS'terribly'
p3005
g20
sS'conducted'
p3006
g20
sS'prejudice'
p3007
g20
sS'threat'
p3008
g20
sS'twenty'
p3009
g20
sS'consequence'
p3010
g20
sS'syria'
p3011
g20
sS'pilots'
p3012
g7
sS'5th'
p3013
g20
sS'feed'
p3014
g7
sS'major'
p3015
g20
sS'mr'
p3016
g7
sS'dont'
p3017
g20
sS'upper'
p3018
g7
sS'feel'
p3019
g20
sS'radical'
p3020
g20
sS'ghetto'
p3021
g20
sS'bullies'
p3022
g20
sS'number'
p3023
g20
sS'welcome'
p3024
g7
sS'bitcoin'
p3025
g7
sS'feet'
p3026
g20
sS'instances'
p3027
g20
sS'talked'
p3028
g7
sS'done'
p3029
g20
sS'fees'
p3030
g7
sS'legalized'
p3031
g20
sS'wages'
p3032
g7
sS'bullied'
p3033
g20
sS'passes'
p3034
g20
sS'guess'
p3035
g20
sS'heads'
p3036
g20
sS'temperature'
p3037
g7
sS'jet'
p3038
g7
sS'paint'
p3039
g7
sS'leading'
p3040
g20
sS'interact'
p3041
g20
sS'threatening'
p3042
g20
sS'least'
p3043
g20
sS'player'
p3044
g7
sS'bleeding'
p3045
g20
sS'regulation'
p3046
g7
sS'assumption'
p3047
g7
sS'quotes'
p3048
g7
sS'warming'
p3049
g7
sS'passed'
p3050
g7
sS'arguing'
p3051
g7
sS'rates'
p3052
g20
sS'hundred'
p3053
g20
sS'store'
p3054
g7
sS'listed'
p3055
g20
sS'selling'
p3056
g7
sS'storm'
p3057
g7
sS'relationship'
p3058
g7
sS'pump'
p3059
g20
sS'johnson'
p3060
g7
sS'hotel'
p3061
g7
sS'mentality'
p3062
g20
sS'paycheck'
p3063
g7
sS'immediate'
p3064
g20
sS'employ'
p3065
g7
sS'plus'
p3066
g7
sS'part'
p3067
g20
sS'word'
p3068
g7
sS'blindly'
p3069
g20
sS'focusing'
p3070
g20
sS'trolls'
p3071
g20
sS'believe'
p3072
g20
sS'rampant'
p3073
g20
sS'hollywood'
p3074
g7
sS'obama'
p3075
g20
sS'king'
p3076
g7
sS'kind'
p3077
g20
sS'assaulted'
p3078
g20
sS'jokes'
p3079
g7
sS'bag'
p3080
g7
sS'gotten'
p3081
g20
sS'grey'
p3082
g20
sS'walmart'
p3083
g7
sS'outrageous'
p3084
g20
sS'game'
p3085
g7
sS'determined'
p3086
g20
sS'marriage'
p3087
g20
sS'risks'
p3088
g20
sS'beneficial'
p3089
g7
sS'shotgun'
p3090
g7
sS'elaborate'
p3091
g7
sS'toward'
p3092
g20
sS'treated'
p3093
g20
sS'declare'
p3094
g20
sS'risky'
p3095
g20
sS'sentenced'
p3096
g20
sS'deciding'
p3097
g20
sS'motivation'
p3098
g20
sS'picked'
p3099
g20
sS'wasnt'
p3100
g7
sS'suspicious'
p3101
g20
sS'ages'
p3102
g7
sS'netflix'
p3103
g7
sS'initially'
p3104
g7
sS'roughly'
p3105
g20
sS'randomly'
p3106
g20
sS'substantial'
p3107
g7
sS'sport'
p3108
g7
sS'sentences'
p3109
g20
sS'my'
p3110
g7
sS'orders'
p3111
g20
sS'vulnerable'
p3112
g20
sS'normal'
p3113
g7
sS'sell'
p3114
g7
sS'lie'
p3115
g20
sS'wilson'
p3116
g20
sS'u.s'
p3117
g20
sS'built'
p3118
g7
sS'zero'
p3119
g20
sS'depending'
p3120
g20
sS'check'
p3121
g7
sS'pa'
p3122
g7
sS'self'
p3123
g20
sS'severe'
p3124
g20
sS'targets'
p3125
g7
sS'also'
p3126
g20
sS'ironically'
p3127
g20
sS'internal'
p3128
g20
sS'useless'
p3129
g20
sS'analogy'
p3130
g20
sS'finding'
p3131
g20
sS'rent'
p3132
g7
sS'youre'
p3133
g7
sS'premise'
p3134
g20
sS'777'
p3135
g7
sS'towards'
p3136
g20
sS'electric'
p3137
g7
sS'retired'
p3138
g7
sS'afghanistan'
p3139
g7
sS'quote'
p3140
g7
sS'sets'
p3141
g20
sS'reach'
p3142
g20
sS'react'
p3143
g20
sS'most'
p3144
g20
sS'virus'
p3145
g20
sS'hired'
p3146
g7
sS'experiences'
p3147
g20
sS'plan'
p3148
g7
sS'significant'
p3149
g7
sS'70'
p3150
g20
sS'nothing'
p3151
g20
sS'accepting'
p3152
g7
sS'extremely'
p3153
g20
sS'approved'
p3154
g20
sS'concrete'
p3155
g7
sS'appear'
p3156
g20
sS'salary'
p3157
g7
sS'mistake'
p3158
g7
sS'reward'
p3159
g7
sS'dealers'
p3160
g20
sS'windows'
p3161
g7
sS'crossing'
p3162
g20
sS'clear'
p3163
g7
sS'sometimes'
p3164
g20
sS'cover'
p3165
g7
sS'unreasonable'
p3166
g20
sS'traditional'
p3167
g7
sS'funded'
p3168
g20
sS'clean'
p3169
g20
sS'funeral'
p3170
g7
sS'barrel'
p3171
g7
sS'justify'
p3172
g20
sS'dumbass'
p3173
g7
sS'attacking'
p3174
g20
sS'lying'
p3175
g20
sS'joining'
p3176
g7
sS'science'
p3177
g7
sS'thomas'
p3178
g7
sS'ugh'
p3179
g20
sS'particularly'
p3180
g20
sS'gold'
p3181
g7
sS'cdc'
p3182
g7
sS'lay'
p3183
g7
sS'rifle'
p3184
g7
sS'celebrities'
p3185
g7
sS'channels'
p3186
g7
sS'winter'
p3187
g7
sS'businesses'
p3188
g7
sS'felon'
p3189
g20
sS'carefully'
p3190
g20
sS'excessive'
p3191
g20
sS'headlines'
p3192
g7
sS'connections'
p3193
g7
sS'fine'
p3194
g20
sS'find'
p3195
g20
sS'faces'
p3196
g7
sS'impact'
p3197
g20
sS'access'
p3198
g7
sS'giant'
p3199
g20
sS'regulations'
p3200
g7
sS'northern'
p3201
g7
sS'music'
p3202
g7
sS'paranoid'
p3203
g20
sS'nervous'
p3204
g20
sS'ruin'
p3205
g20
sS'less'
p3206
g20
sS'assertion'
p3207
g7
sS'ball'
p3208
g7
sS'penalty'
p3209
g20
sS'failed'
p3210
g20
sS'idiots'
p3211
g20
sS'indian'
p3212
g7
sS'asking'
p3213
g7
sS'central'
p3214
g7
sS'pretty'
p3215
g20
sS'feminists'
p3216
g20
sS'8'
p3217
g20
sS'circle'
p3218
g7
sS'insurance'
p3219
g7
sS'accurate'
p3220
g7
sS'policing'
p3221
g20
sS'publicity'
p3222
g20
sS'gains'
p3223
g7
sS'hiv'
p3224
g20
sS'meanwhile'
p3225
g20
sS'dependent'
p3226
g20
sS'banned'
p3227
g7
sS'express'
p3228
g20
sS'grocery'
p3229
g7
sS'trees'
p3230
g7
sS'obtain'
p3231
g7
sS'famous'
p3232
g7
sS'feels'
p3233
g20
sS'grew'
p3234
g7
sS'interviews'
p3235
g7
sS'rest'
p3236
g20
sS'pretending'
p3237
g20
sS'reporters'
p3238
g7
sS'during'
p3239
g20
sS'him'
p3240
g20
sS'target'
p3241
g7
sS'enemy'
p3242
g20
sS'showed'
p3243
g7
sS'contagious'
p3244
g20
sS'breed'
p3245
g7
sS'cry'
p3246
g7
sS'pissing'
p3247
g20
sS'remove'
p3248
g7
sS'posting'
p3249
g7
sS'watched'
p3250
g7
sS'banking'
p3251
g7
sS'investigate'
p3252
g20
sS'stored'
p3253
g7
sS'common'
p3254
g20
sS'activity'
p3255
g20
sS'x'
p3256
g7
sS'river'
p3257
g7
sS'cheese'
p3258
g7
sS'employer'
p3259
g7
sS'wrote'
p3260
g7
sS'restaurants'
p3261
g7
sS'insane'
p3262
g20
sS'spell'
p3263
g7
sS'bars'
p3264
g7
sS'set'
p3265
g20
sS'art'
p3266
g7
sS'guys'
p3267
g7
sS'dump'
p3268
g20
sS'incapable'
p3269
g20
sS'throwing'
p3270
g7
sS'intelligence'
p3271
g7
sS'activists'
p3272
g20
sS'uses'
p3273
g20
sS'topics'
p3274
g7
sS'sex'
p3275
g7
sS'plausible'
p3276
g20
sS'culture'
p3277
g20
sS'see'
p3278
g20
sS'defense'
p3279
g20
sS'dumb'
p3280
g20
sS'sea'
p3281
g7
sS'close'
p3282
g7
sS'arm'
p3283
g20
sS'recording'
p3284
g7
sS'threats'
p3285
g20
sS'probable'
p3286
g20
sS'expert'
p3287
g7
sS'visiting'
p3288
g7
sS'mine'
p3289
g7
sS'pictures'
p3290
g7
sS'user'
p3291
g7
sS'currently'
p3292
g20
sS'please'
p3293
g7
sS'terrified'
p3294
g20
sS'ups'
p3295
g7
sS'case'
p3296
g20
sS'unions'
p3297
g7
sS'won'
p3298
g7
sS'various'
p3299
g20
sS'happiness'
p3300
g7
sS'use'
p3301
g7
sS'probably'
p3302
g20
sS'burned'
p3303
g7
sS'donate'
p3304
g20
sS'numerous'
p3305
g20
sS'corruption'
p3306
g20
sS'piss'
p3307
g20
sS'knowing'
p3308
g20
sS'korea'
p3309
g7
sS'recently'
p3310
g20
sS'statistically'
p3311
g20
sS'missing'
p3312
g7
sS'targeted'
p3313
g20
sS'pisses'
p3314
g20
sS'sold'
p3315
g7
sS'attention'
p3316
g20
sS'lunch'
p3317
g7
sS'blatant'
p3318
g20
sS'incident'
p3319
g20
sS'succeed'
p3320
g20
sS'opposition'
p3321
g20
sS'competent'
p3322
g7
sS'pissed'
p3323
g20
sS'legislature'
p3324
g20
sS'both'
p3325
g20
sS'c'
p3326
g7
sS'f'
p3327
g7
sS'prescription'
p3328
g20
sS'reverse'
p3329
g7
sS'license'
p3330
g20
sS'restaurant'
p3331
g7
sS'solely'
p3332
g20
sS'hint'
p3333
g20
sS'minorities'
p3334
g20
sS'sensitive'
p3335
g20
sS'connection'
p3336
g7
sS'became'
p3337
g20
sS'alot'
p3338
g20
sS'retarded'
p3339
g20
sS'long-term'
p3340
g7
sS'poverty'
p3341
g20
sS'whole'
p3342
g20
sS'finds'
p3343
g20
sS'league'
p3344
g7
sS'load'
p3345
g20
sS'liked'
p3346
g7
sS'childhood'
p3347
g7
sS'consume'
p3348
g7
sS'hackers'
p3349
g7
sS'bell'
p3350
g20
sS'reasons'
p3351
g20
sS'sky'
p3352
g7
sS'acted'
p3353
g20
sS'stuck'
p3354
g7
sS'whatever'
p3355
g20
sS'coincidence'
p3356
g20
sS'pm'
p3357
g7
sS'simply'
p3358
g20
sS'likes'
p3359
g20
sS'airline'
p3360
g7
sS'throughout'
p3361
g20
sS'mission'
p3362
g7
sS'expensive'
p3363
g20
sS'belt'
p3364
g7
sS'pr'
p3365
g7
sS'dui'
p3366
g20
sS'worthless'
p3367
g20
sS'devil'
p3368
g7
sS'described'
p3369
g7
sS'raise'
p3370
g7
sS'monthly'
p3371
g7
sS'create'
p3372
g20
sS'political'
p3373
g20
sS'due'
p3374
g20
sS'appears'
p3375
g7
sS'convicted'
p3376
g20
sS'pc'
p3377
g7
sS'reduction'
p3378
g20
sS'dropping'
p3379
g20
sS'damn'
p3380
g7
sS'pd'
p3381
g7
sS'collected'
p3382
g7
sS'threaten'
p3383
g20
sS'mindset'
p3384
g20
sS'meeting'
p3385
g7
sS'empty'
p3386
g7
sS'treatment'
p3387
g20
sS'files'
p3388
g7
sS'misunderstood'
p3389
g7
sS'fights'
p3390
g20
sS'flight'
p3391
g7
sS'ferguson'
p3392
g20
sS'gay'
p3393
g20
sS'etc'
p3394
g7
sS'fire'
p3395
g7
sS'nra'
p3396
g20
sS'exempt'
p3397
g20
sS'gas'
p3398
g7
sS'great'
p3399
g7
sS'new'
p3400
g7
sS'else'
p3401
g20
sS'fund'
p3402
g7
sS'races'
p3403
g20
sS'understand'
p3404
g20
sS'representative'
p3405
g20
sS'demand'
p3406
g7
sS'receive'
p3407
g7
sS'despite'
p3408
g20
sS'presented'
p3409
g7
sS'extensive'
p3410
g7
sS'doctors'
p3411
g7
sS'plants'
p3412
g7
sS'georgia'
p3413
g7
sS'politician'
p3414
g20
sS'look'
p3415
g20
sS'raw'
p3416
g7
sS'solid'
p3417
g7
sS'judicial'
p3418
g20
sS'socialist'
p3419
g20
sS'tip'
p3420
g7
sS'stars'
p3421
g7
sS'holocaust'
p3422
g20
sS'governor'
p3423
g20
sS'forgetting'
p3424
g7
sS'while'
p3425
g7
sS'socialism'
p3426
g20
sS'replaced'
p3427
g7
sS'match'
p3428
g20
sS'behavior'
p3429
g20
sS'error'
p3430
g7
sS'fun'
p3431
g7
sS'loot'
p3432
g20
sS'pack'
p3433
g20
sS'30'
p3434
g20
sS'hoping'
p3435
g7
sS'century'
p3436
g20
sS'backing'
p3437
g20
sS'guilty'
p3438
g20
sS'rip'
p3439
g7
sS'reads'
p3440
g7
sS'itself'
p3441
g20
sS'ready'
p3442
g20
sS'rid'
p3443
g7
sS'leaving'
p3444
g7
sS'payers'
p3445
g7
sS'hyperbole'
p3446
g20
sS'funny'
p3447
g7
sS'strikes'
p3448
g7
sS'shirt'
p3449
g7
sS'anymore'
p3450
g20
sS'grant'
p3451
g20
sS'belong'
p3452
g20
sS'accomplished'
p3453
g7
sS'read'
p3454
g7
sS'discredit'
p3455
g20
sS'virtually'
p3456
g20
sS'widely'
p3457
g20
sS'grand'
p3458
g20
sS'9'
p3459
g20
sS'survey'
p3460
g20
sS'proved'
p3461
g20
sS'relatively'
p3462
g7
sS'conflict'
p3463
g20
sS'higher'
p3464
g20
sS'development'
p3465
g7
sS'used'
p3466
g7
sS'lawyers'
p3467
g7
sS'affairs'
p3468
g20
sS'bonus'
p3469
g7
sS'yesterday'
p3470
g7
sS'alert'
p3471
g7
sS'moment'
p3472
g20
sS'levels'
p3473
g20
sS'moving'
p3474
g20
sS'purpose'
p3475
g20
sS'necessity'
p3476
g20
sS'contractors'
p3477
g7
sS'80'
p3478
g20
sS'recent'
p3479
g20
sS'dark'
p3480
g7
sS'lower'
p3481
g20
sS'task'
p3482
g20
sS'database'
p3483
g7
sS'abusive'
p3484
g7
sS'miss'
p3485
g7
sS'anybody'
p3486
g20
sS'county'
p3487
g7
sS'obviously'
p3488
g20
sS'sports'
p3489
g7
sS'person'
p3490
g20
sS'edge'
p3491
g7
sS'services'
p3492
g7
sS'household'
p3493
g7
sS'thoroughly'
p3494
g20
sS'y'
p3495
g7
sS'organization'
p3496
g7
sS'spend'
p3497
g7
sS'donation'
p3498
g7
sS'mom'
p3499
g7
sS'amp'
p3500
g7
sS'removed'
p3501
g7
sS'named'
p3502
g7
sS'competitive'
p3503
g7
sS'self-defense'
p3504
g20
sS'arrests'
p3505
g20
sS'shape'
p3506
g7
sS'openly'
p3507
g20
sS'questions'
p3508
g7
sS'mob'
p3509
g20
sS'elect'
p3510
g20
sS'alternative'
p3511
g7
sS'injuries'
p3512
g20
sS'letting'
p3513
g20
sS'accepted'
p3514
g20
sS'majority'
p3515
g20
sS'lady'
p3516
g7
sS'workers'
p3517
g7
sS'percent'
p3518
g20
sS'guaranteed'
p3519
g7
sS'cuz'
p3520
g7
sS'exclusively'
p3521
g20
sS'revenue'
p3522
g7
sS'shouting'
p3523
g20
sS'subjects'
p3524
g7
sS'deliberately'
p3525
g20
sS'questioned'
p3526
g20
sS'crying'
p3527
g20
sS'win'
p3528
g7
sS'snap'
p3529
g7
sS'contrary'
p3530
g7
sS'violations'
p3531
g20
sS'administrative'
p3532
g20
sS'remaining'
p3533
g7
sS'surprised'
p3534
g20
sS'nasa'
p3535
g7
sS'ridiculously'
p3536
g20
sS'complaint'
p3537
g20
sS'australia'
p3538
g7
sS'victims'
p3539
g20
sS'doors'
p3540
g7
sS'emergency'
p3541
g7
sS'demands'
p3542
g20
sS'big'
p3543
g20
sS'couple'
p3544
g20
sS'advocate'
p3545
g20
sS'unlimited'
p3546
g7
sS'judgement'
p3547
g20
sS'matters'
p3548
g20
sS'suffering'
p3549
g20
sS'reliable'
p3550
g7
sS'bit'
p3551
g20
sS'stable'
p3552
g7
sS'projects'
p3553
g7
sS'skeptical'
p3554
g20
sS'outright'
p3555
g20
sS'competing'
p3556
g7
sS'd'
p3557
g20
sS'sincerely'
p3558
g7
sS'follows'
p3559
g20
sS'signal'
p3560
g7
sS'ignore'
p3561
g20
sS'collect'
p3562
g7
sS'continue'
p3563
g20
sS'unstable'
p3564
g20
sS'popular'
p3565
g7
sS'fault'
p3566
g20
sS'disorder'
p3567
g20
sS'ptsd'
p3568
g20
sS'google'
p3569
g7
sS'often'
p3570
g20
sS'fucking'
p3571
g20
sS'goddamn'
p3572
g7
sS'fathers'
p3573
g7
sS'1st'
p3574
g20
sS'some'
p3575
g20
sS'back'
p3576
g20
sS'phone'
p3577
g7
sS'extremist'
p3578
g20
sS'understood'
p3579
g7
sS'economic'
p3580
g20
sS'examples'
p3581
g20
sS'sight'
p3582
g20
sS'apply'
p3583
g20
sS'curious'
p3584
g20
sS'ourselves'
p3585
g20
sS'taxpayers'
p3586
g7
sS'and/or'
p3587
g20
sS'describing'
p3588
g7
sS'garage'
p3589
g7
sS'pet'
p3590
g7
sS'affects'
p3591
g20
sS'decision'
p3592
g20
sS'shall'
p3593
g7
sS'audience'
p3594
g7
sS'per'
p3595
g20
sS'firearm'
p3596
g20
sS'meds'
p3597
g20
sS'behave'
p3598
g20
sS'eliminate'
p3599
g20
sS'prosecuted'
p3600
g20
sS'tends'
p3601
g20
sS'visit'
p3602
g7
sS'closely'
p3603
g20
sS'invade'
p3604
g20
sS'minimal'
p3605
g7
sS'shooters'
p3606
g20
sS'measures'
p3607
g7
sS'run'
p3608
g20
sS'professionals'
p3609
g7
sS'fancy'
p3610
g7
sS'300'
p3611
g20
sS'hypocritical'
p3612
g20
sS'martin'
p3613
g20
sS'continuing'
p3614
g20
sS'agreement'
p3615
g7
sS'refused'
p3616
g20
sS'step'
p3617
g20
sS'nowhere'
p3618
g20
sS'bs'
p3619
g20
sS'refuses'
p3620
g20
sS'lottery'
p3621
g7
sS'by'
p3622
g20
sS'vaccine'
p3623
g20
sS'troops'
p3624
g20
sS'faith'
p3625
g7
sS'pipeline'
p3626
g7
sS'goods'
p3627
g7
sS'consumption'
p3628
g7
sS'anything'
p3629
g20
sS'cigarette'
p3630
g20
sS'god'
p3631
g7
sS'firing'
p3632
g7
sS'75'
p3633
g20
sS'page'
p3634
g7
sS'deserves'
p3635
g20
sS'range'
p3636
g20
sS'regular'
p3637
g20
sS'militia'
p3638
g20
sS'idk'
p3639
g7
sS'mouth'
p3640
g7
sS'hatred'
p3641
g20
sS'silence'
p3642
g20
sS'credible'
p3643
g7
sS'seeing'
p3644
g20
sS'clinton'
p3645
g20
sS'colorado'
p3646
g20
sS'garbage'
p3647
g20
sS'harassed'
p3648
g20
sS'nsa'
p3649
g7
sS'aliens'
p3650
g20
sS'lawsuits'
p3651
g20
sS'nonsense'
p3652
g20
sS'servers'
p3653
g7
sS'currency'
p3654
g7
sS'neutrality'
p3655
g7
sS'appropriate'
p3656
g20
sS'master'
p3657
g7
sS'primarily'
p3658
g20
sS'lesson'
p3659
g7
sS'next'
p3660
g7
sS'morning'
p3661
g7
sS'delusional'
p3662
g20
sS'bankruptcy'
p3663
g7
sS'explaining'
p3664
g7
sS'statistics'
p3665
g20
sS'story'
p3666
g7
sS'joking'
p3667
g7
sS'grammar'
p3668
g7
sS'spending'
p3669
g7
sS'ruined'
p3670
g7
sS'apparently'
p3671
g7
sS'question'
p3672
g20
sS'fast'
p3673
g20
sS'accountability'
p3674
g20
sS'ordered'
p3675
g20
sS'atheists'
p3676
g20
sS'camera'
p3677
g7
sS'infected'
p3678
g20
sS'suit'
p3679
g7
sS'forward'
p3680
g20
sS'bored'
p3681
g7
sS'footage'
p3682
g7
sS'record'
p3683
g7
sS'procedures'
p3684
g7
sS'himself'
p3685
g20
sS'elsewhere'
p3686
g7
sS'jewish'
p3687
g7
sS'poster'
p3688
g7
sS'registered'
p3689
g7
sS'criteria'
p3690
g20
sS'immigration'
p3691
g7
sS'boys'
p3692
g7
sS'properly'
p3693
g20
sS'link'
p3694
g7
sS'repeatedly'
p3695
g7
sS'filed'
p3696
g20
sS'hopes'
p3697
g20
sS'line'
p3698
g20
sS'pain'
p3699
g20
sS'letter'
p3700
g7
sS'raising'
p3701
g7
sS'observation'
p3702
g7
sS'directed'
p3703
g20
sS'hair'
p3704
g20
sS'cia'
p3705
g20
sS'middle'
p3706
g7
sS'wait'
p3707
g7
sS'up'
p3708
g20
sS'us'
p3709
g20
sS'father'
p3710
g7
sS'planet'
p3711
g20
sS'mobile'
p3712
g7
sS'sigh'
p3713
g7
sS'un'
p3714
g7
sS'today'
p3715
g20
sS'uk'
p3716
g20
sS'planes'
p3717
g7
sS'similar'
p3718
g20
sS'called'
p3719
g20
sS'possession'
p3720
g20
sS'associated'
p3721
g20
sS'adults'
p3722
g7
sS'figured'
p3723
g7
sS'defined'
p3724
g7
sS'flow'
p3725
g20
sS'unsafe'
p3726
g20
sS'package'
p3727
g7
sS'single'
p3728
g20
sS'cure'
p3729
g20
sS'bitch'
p3730
g20
sS'denying'
p3731
g20
sS'facebook'
p3732
g7
sS'thugs'
p3733
g20
sS'taser'
p3734
g20
sS'amounts'
p3735
g20
sS'fixing'
p3736
g7
sS'image'
p3737
g7
sS'malicious'
p3738
g20
sS'laughing'
p3739
g7
sS'fracking'
p3740
g20
sS'teams'
p3741
g7
sS'preventing'
p3742
g20
sS'excuses'
p3743
g20
sS'politicians'
p3744
g20
sS'reputation'
p3745
g20
sS'actors'
p3746
g7
sS'income'
p3747
g7
sS'department'
p3748
g20
sS'responded'
p3749
g7
sS'raped'
p3750
g7
sS'draw'
p3751
g20
sS'users'
p3752
g7
sS'accidental'
p3753
g20
sS'provided'
p3754
g7
sS'kansas'
p3755
g7
sS'prosecution'
p3756
g20
sS'prepared'
p3757
g20
sS'helping'
p3758
g20
sS'drag'
p3759
g20
sS'allowing'
p3760
g20
sS'utterly'
p3761
g20
sS'missile'
p3762
g7
sS'sides'
p3763
g20
sS'structure'
p3764
g20
sS'ago'
p3765
g7
sS'lane'
p3766
g20
sS'miles'
p3767
g20
sS'fighter'
p3768
g7
sS'practically'
p3769
g20
sS'officers'
p3770
g20
sS'age'
p3771
g7
sS'required'
p3772
g20
sS'holes'
p3773
g7
sS'departments'
p3774
g7
sS'scream'
p3775
g7
sS'satellite'
p3776
g7
sS'2000'
p3777
g7
sS'carrying'
p3778
g7
sS'2007'
p3779
g20
sS'narrative'
p3780
g20
sS'ignorant'
p3781
g20
sS'2008'
p3782
g20
sS'2009'
p3783
g20
sS'intentional'
p3784
g20
sS'having'
p3785
g20
sS'once'
p3786
g20
sS'sector'
p3787
g7
sS'gt'
p3788
g20
sS'guessing'
p3789
g7
sS'issued'
p3790
g20
sS'results'
p3791
g20
sS'produce'
p3792
g7
sS'fluids'
p3793
g20
sS'baby'
p3794
g7
sS'farms'
p3795
g7
sS'gang'
p3796
g20
sS'go'
p3797
g20
sS'gm'
p3798
g7
sS'moon'
p3799
g20
sS'centers'
p3800
g7
sS'issues'
p3801
g20
sS'seemed'
p3802
g20
sS'baseball'
p3803
g7
sS'uphold'
p3804
g20
sS'description'
p3805
g7
sS'grass'
p3806
g7
sS'young'
p3807
g7
sS'send'
p3808
g7
sS'nose'
p3809
g20
sS'citing'
p3810
g7
sS'institutions'
p3811
g7
sS'helps'
p3812
g20
sS'late'
p3813
g7
sS'weather'
p3814
g7
sS'dislike'
p3815
g20
sS'fatal'
p3816
g20
sS'friendly'
p3817
g7
sS'resources'
p3818
g20
sS'family'
p3819
g7
sS'confirmation'
p3820
g20
sS'mainstream'
p3821
g20
sS'torture'
p3822
g20
sS'outside'
p3823
g7
sS'continues'
p3824
g20
sS'genius'
p3825
g7
sS'wave'
p3826
g7
sS'indication'
p3827
g20
sS'wishes'
p3828
g20
sS'putting'
p3829
g7
sS'accuse'
p3830
g20
sS'telling'
p3831
g7
sS'drinking'
p3832
g7
sS'subreddit'
p3833
g7
sS'continued'
p3834
g20
sS'wipe'
p3835
g20
sS'entire'
p3836
g20
sS'magic'
p3837
g7
sS'implying'
p3838
g20
sS'transmission'
p3839
g20
sS'gender'
p3840
g20
sS'marry'
p3841
g7
sS'shock'
p3842
g20
sS'michael'
p3843
g7
sS'fewer'
p3844
g20
sS'try'
p3845
g20
sS'race'
p3846
g20
sS'verdict'
p3847
g20
sS'dealt'
p3848
g20
sS'stay'
p3849
g7
sS'enforce'
p3850
g20
sS'solutions'
p3851
g7
sS'app'
p3852
g7
sS'smaller'
p3853
g20
sS'wording'
p3854
g7
sS'punishing'
p3855
g20
sS'abortion'
p3856
g7
sS'scientist'
p3857
g7
sS'jump'
p3858
g20
sS'imply'
p3859
g7
sS'noise'
p3860
g7
sS'video'
p3861
g7
sS'traveling'
p3862
g7
sS'uncomfortable'
p3863
g20
sS'neutral'
p3864
g7
sS'download'
p3865
g7
sS'cat'
p3866
g7
sS'odd'
p3867
g20
sS'click'
p3868
g7
sS'depression'
p3869
g20
sS'inaccurate'
p3870
g20
sS'universities'
p3871
g7
sS'reviews'
p3872
g20
sS'plays'
p3873
g7
sS'business'
p3874
g7
sS'chicago'
p3875
g7
sS'giving'
p3876
g7
sS'saw'
p3877
g7
sS'schedule'
p3878
g20
sS'networks'
p3879
g7
sS'cell'
p3880
g7
sS'consistently'
p3881
g20
sS'waiting'
p3882
g7
sS'experiment'
p3883
g7
sS'eating'
p3884
g7
sS'capital'
p3885
g7
sS'values'
p3886
g20
sS'cup'
p3887
g7
sS'nazis'
p3888
g20
sS'body'
p3889
g20
sS'justification'
p3890
g20
sS'led'
p3891
g20
sS'chose'
p3892
g20
sS'stance'
p3893
g20
sS'leg'
p3894
g20
sS'got'
p3895
g7
sS'pushing'
p3896
g20
sS'commercial'
p3897
g7
sS'punch'
p3898
g7
sS'leo'
p3899
g20
sS'highly'
p3900
g20
sS'growing'
p3901
g7
sS'resisting'
p3902
g20
sS'let'
p3903
g20
sS'others'
p3904
g20
sS'downvote'
p3905
g7
sS'consideration'
p3906
g20
sS'safer'
p3907
g7
sS'invented'
p3908
g20
sS'extreme'
p3909
g20
sS'ukraine'
p3910
g20
sS'redditor'
p3911
g7
sS'engage'
p3912
g20
sS'technical'
p3913
g7
sS'involved'
p3914
g20
sS'larger'
p3915
g20
sS'alaska'
p3916
g7
sS'35'
p3917
g20
sS'later'
p3918
g20
sS'engine'
p3919
g7
sS'suggests'
p3920
g20
sS'resulting'
p3921
g20
sS'sword'
p3922
g7
sS'opinion'
p3923
g20
sS'residents'
p3924
g7
sS'proof'
p3925
g20
sS'makes'
p3926
g20
sS'honor'
p3927
g7
sS'involves'
p3928
g20
sS'thats'
p3929
g7
sS'fake'
p3930
g7
sS'showing'
p3931
g7
sS'apple'
p3932
g7
sS'danger'
p3933
g20
sS'forbid'
p3934
g20
sS'presidents'
p3935
g20
sS'juries'
p3936
g20
sS'manage'
p3937
g20
sS'leaked'
p3938
g7
sS'private'
p3939
g7
sS'bend'
p3940
g20
sS'addressed'
p3941
g7
sS'decrease'
p3942
g20
sS'names'
p3943
g7
sS'scandal'
p3944
g20
sS'ah'
p3945
g7
sS'route'
p3946
g7
sS'headed'
p3947
g7
sS'cloud'
p3948
g7
sS'announced'
p3949
g7
sS'standing'
p3950
g7
sS'confidence'
p3951
g20
sS'fee'
p3952
g7
sS'crap'
p3953
g20
sS'secure'
p3954
g7
sS'usa'
p3955
g20
sS'freedoms'
p3956
g20
sS'remains'
p3957
g7
sS'illegal'
p3958
g20
sS'physics'
p3959
g7
sS'throw'
p3960
g7
sS'few'
p3961
g20
sS'doubt'
p3962
g20
sS'vehicle'
p3963
g20
sS'themselves'
p3964
g20
sS'stage'
p3965
g7
sS'historically'
p3966
g20
sS'defendant'
p3967
g20
sS'sort'
p3968
g20
sS'gon'
p3969
g7
sS'clever'
p3970
g7
sS'cast'
p3971
g7
sS'journalists'
p3972
g7
sS'started'
p3973
g20
sS'becomes'
p3974
g20
sS'inclined'
p3975
g20
sS'factor'
p3976
g20
sS'occurred'
p3977
g20
sS'infection'
p3978
g20
sS'bodily'
p3979
g20
sS'meant'
p3980
g7
sS'opposing'
p3981
g20
sS'ashamed'
p3982
g20
sS'east'
p3983
g7
sS'penis'
p3984
g7
sS'gladly'
p3985
g20
sS'nypd'
p3986
g20
sS'appointed'
p3987
g20
sS'carried'
p3988
g20
sS'customer'
p3989
g7
sS'topic'
p3990
g20
sS'account'
p3991
g7
sS'balls'
p3992
g20
sS'animals'
p3993
g7
sS'disingenuous'
p3994
g20
sS'heard'
p3995
g20
sS'challenge'
p3996
g20
sS'sounded'
p3997
g7
sS'anywhere'
p3998
g20
sS'crossed'
p3999
g20
sS'thin'
p4000
g7
sS'freedom'
p4001
g20
sS'industrial'
p4002
g7
sS'meet'
p4003
g20
sS'closing'
p4004
g7
sS'drops'
p4005
g20
sS'didnt'
p4006
g7
sS'rehabilitation'
p4007
g20
sS'performed'
p4008
g20
sS'control'
p4009
g7
sS'patrol'
p4010
g7
sS'links'
p4011
g7
sS'providers'
p4012
g7
sS'process'
p4013
g20
sS'lock'
p4014
g7
sS'tax'
p4015
g7
sS'purposes'
p4016
g7
sS'pieces'
p4017
g20
sS'high'
p4018
g20
sS'effectively'
p4019
g20
sS'assumptions'
p4020
g7
sS'pulling'
p4021
g7
sS'something'
p4022
g20
sS'slip'
p4023
g20
sS'founding'
p4024
g20
sS'serial'
p4025
g20
sS'voice'
p4026
g7
sS'rape'
p4027
g20
sS'native'
p4028
g7
sS'practical'
p4029
g7
sS'educational'
p4030
g7
sS'united'
p4031
g20
sS'surrounded'
p4032
g7
sS'democracy'
p4033
g20
sS'sit'
p4034
g7
sS'destroying'
p4035
g20
sS'clothing'
p4036
g7
sS'justifiable'
p4037
g20
sS'materials'
p4038
g7
sS'located'
p4039
g7
sS'carrier'
p4040
g7
sS'pair'
p4041
g7
sS'animal'
p4042
g7
sS'instead'
p4043
g20
sS'comedy'
p4044
g7
sS'immoral'
p4045
g20
sS'sin'
p4046
g7
sS'stand'
p4047
g20
sS'profile'
p4048
g7
sS'buildings'
p4049
g7
sS'blocks'
p4050
g7
sS'neighbor'
p4051
g7
sS'attend'
p4052
g7
sS'sir'
p4053
g7
sS'farm'
p4054
g7
sS'watch'
p4055
g7
sS'incompetence'
p4056
g20
sS'testimony'
p4057
g20
sS'tied'
p4058
g20
sS'bothered'
p4059
g20
sS'abuse'
p4060
g20
sS'wrist'
p4061
g20
sS'records'
p4062
g7
sS'ethnic'
p4063
g20
sS'fits'
p4064
g20
sS'monitoring'
p4065
g7
sS'spelling'
p4066
g7
sS'cheaper'
p4067
g7
sS'npr'
p4068
g7
sS'realized'
p4069
g20
sS'retirement'
p4070
g7
sS'boeing'
p4071
g7
sS'manufacturing'
p4072
g7
sS'host'
p4073
g7
sS'light'
p4074
g7
sS'counter'
p4075
g20
sS'lines'
p4076
g7
sS'element'
p4077
g20
sS'wwii'
p4078
g20
sS'chief'
p4079
g7
sS'advocates'
p4080
g20
sS'honestly'
p4081
g20
sS'allow'
p4082
g20
sS'healthcare'
p4083
g7
sS'foster'
p4084
g7
sS'addiction'
p4085
g20
sS'looking'
p4086
g20
sS'houston'
p4087
g7
sS'six'
p4088
g20
sS'theft'
p4089
g20
sS'vaccinated'
p4090
g7
sS'move'
p4091
g20
sS'ladies'
p4092
g7
sS'produced'
p4093
g7
sS'including'
p4094
g20
sS'looks'
p4095
g7
sS'permission'
p4096
g20
sS'passengers'
p4097
g7
sS'bunch'
p4098
g20
sS'perfect'
p4099
g7
sS'superior'
p4100
g20
sS'la'
p4101
g20
sS'chosen'
p4102
g20
sS'll'
p4103
g20
sS'ships'
p4104
g7
sS'tsa'
p4105
g7
sS'owe'
p4106
g7
sS'lt'
p4107
g7
sS'permanent'
p4108
g20
sS'degrees'
p4109
g7
sS'choose'
p4110
g20
sS'orange'
p4111
g7
sS'2014'
p4112
g7
sS'criminal'
p4113
g20
sS'2011'
p4114
g20
sS'2010'
p4115
g20
sS'2013'
p4116
g20
sS'2012'
p4117
g20
sS'dad'
p4118
g7
sS'violating'
p4119
g20
sS'skilled'
p4120
g7
sS'crash'
p4121
g20
sS'pure'
p4122
g20
sS'auto'
p4123
g20
sS'repercussions'
p4124
g20
sS'practice'
p4125
g20
sS'earn'
p4126
g7
sS'flew'
p4127
g7
sS'negligent'
p4128
g20
sS'mention'
p4129
g20
sS'cutting'
p4130
g7
sS'billions'
p4131
g20
sS'kid'
p4132
g7
sS'hands'
p4133
g7
sS'front'
p4134
g7
sS'documented'
p4135
g20
sS'republican'
p4136
g20
sS'realize'
p4137
g20
sS'presidential'
p4138
g20
sS'liberia'
p4139
g7
sS'masters'
p4140
g7
sS'mods'
p4141
g7
sS'progressive'
p4142
g20
sS'edit'
p4143
g7
sS'panic'
p4144
g20
sS'university'
p4145
g7
sS'covering'
p4146
g7
sS'identified'
p4147
g20
sS'parks'
p4148
g7
sS'magnitude'
p4149
g20
sS'rockets'
p4150
g7
sS'trap'
p4151
g20
sS'truth'
p4152
g20
sS'fields'
p4153
g7
sS'disregard'
p4154
g20
sS'involvement'
p4155
g20
sS'bills'
p4156
g7
sS'experienced'
p4157
g20
sS'ratings'
p4158
g7
sS'eastern'
p4159
g20
sS'determine'
p4160
g20
sS'doing'
p4161
g20
sS'chunk'
p4162
g20
sS'registration'
p4163
g20
sS'staying'
p4164
g7
sS'related'
p4165
g20
sS'kitchen'
p4166
g20
sS'society'
p4167
g20
sS'fraction'
p4168
g20
sS'aim'
p4169
g20
sS'measure'
p4170
g7
sS'our'
p4171
g20
sS'meth'
p4172
g20
sS'he/she'
p4173
g20
sS'special'
p4174
g20
sS'out'
p4175
g20
sS'category'
p4176
g20
sS'fundamentally'
p4177
g20
sS'sentiment'
p4178
g20
sS'populace'
p4179
g20
sS'armor'
p4180
g7
sS'defend'
p4181
g20
sS'yup'
p4182
g7
sS'unlawful'
p4183
g20
sS'chaos'
p4184
g20
sS'escalate'
p4185
g20
sS'mate'
p4186
g7
sS'zimmerman'
p4187
g20
sS'utility'
p4188
g7
sS'cause'
p4189
g20
sS'red'
p4190
g7
sS'debris'
p4191
g7
sS'model'
p4192
g7
sS'shut'
p4193
g7
sS'philosophy'
p4194
g7
sS'interactions'
p4195
g20
sS'scumbag'
p4196
g20
sS'greedy'
p4197
g20
sS'release'
p4198
g7
sS'completely'
p4199
g20
sS'surely'
p4200
g20
sS'york'
p4201
g7
sS'conservatives'
p4202
g20
sS'regulatory'
p4203
g7
sS'indicates'
p4204
g7
sS'likelihood'
p4205
g20
sS'quo'
p4206
g7
sS'scary'
p4207
g20
sS'backwards'
p4208
g20
sS'allies'
p4209
g20
sS'gun'
p4210
g7
sS'crashed'
p4211
g7
sS'automatic'
p4212
g7
sS'could'
p4213
g20
sS'latest'
p4214
g7
sS'put'
p4215
g20
sS'confident'
p4216
g7
sS'keep'
p4217
g20
sS'conversation'
p4218
g7
sS'length'
p4219
g20
sS'pigs'
p4220
g7
sS'assumed'
p4221
g7
sS'hence'
p4222
g7
sS'discussions'
p4223
g7
sS'ears'
p4224
g20
sS'scare'
p4225
g20
sS'south'
p4226
g7
sS'mad'
p4227
g7
sS'degree'
p4228
g7
sS'blown'
p4229
g20
sS'powerful'
p4230
g20
sS'scene'
p4231
g20
sS'owned'
p4232
g7
sS'racism'
p4233
g20
sS'facility'
p4234
g7
sS'date'
p4235
g7
sS'submit'
p4236
g20
sS'ties'
p4237
g7
sS'owner'
p4238
g7
sS'probation'
p4239
g20
sS'blows'
p4240
g20
sS'precisely'
p4241
g20
sS'quality'
p4242
g7
sS'heroes'
p4243
g7
sS'owning'
p4244
g7
sS'negotiate'
p4245
g7
sS'bull'
p4246
g7
sS'ancient'
p4247
g20
sS'sadly'
p4248
g20
sS'reference'
p4249
g7
sS'privacy'
p4250
g20
sS'bears'
p4251
g7
sS'unknown'
p4252
g7
sS'fuckers'
p4253
g20
sS'system'
p4254
g20
sS'relations'
p4255
g7
sS'realistically'
p4256
g20
sS'priority'
p4257
g20
sS'attack'
p4258
g20
sS'swear'
p4259
g7
sS'iirc'
p4260
g7
sS'man'
p4261
g7
sS'lapd'
p4262
g20
sS'painful'
p4263
g20
sS'prone'
p4264
g20
sS'interests'
p4265
g20
sS'2-3'
p4266
g20
sS'stomach'
p4267
g20
sS'gear'
p4268
g7
sS'collection'
p4269
g7
sS'whats'
p4270
g7
sS'punish'
p4271
g20
sS'explanation'
p4272
g7
sS'nobody'
p4273
g20
sS'debate'
p4274
g7
sS'israeli'
p4275
g7
sS'depressing'
p4276
g20
sS'environmental'
p4277
g20
sS'chemicals'
p4278
g20
sS'regards'
p4279
g20
sS'overwhelming'
p4280
g7
sS'elite'
p4281
g20
sS'institution'
p4282
g7
sS'neck'
p4283
g20
sS'zones'
p4284
g20
sS'warfare'
p4285
g20
sS'boring'
p4286
g20
sS'bother'
p4287
g20
sS'youtube'
p4288
g7
sS'bed'
p4289
g7
sS'limiting'
p4290
g20
sS'claim'
p4291
g20
sS'patients'
p4292
g20
sS'individual'
p4293
g20
sS'gays'
p4294
g20
sS'bare'
p4295
g7
sS'india'
p4296
g7
sS'providing'
p4297
g7
sS'bet'
p4298
g20
sS'drunk'
p4299
g20
sS'accusing'
p4300
g20
sS'enforced'
p4301
g20
sS'flights'
p4302
g7
sS'false'
p4303
g20
sS'clip'
p4304
g7
sS'teenagers'
p4305
g7
sS'comfortable'
p4306
g7
sS'tonight'
p4307
g7
sS'fail'
p4308
g20
sS'civilized'
p4309
g7
sS'defending'
p4310
g20
sS'miserable'
p4311
g20
sS'need'
p4312
g20
sS'border'
p4313
g20
sS'clearly'
p4314
g20
sS'viewed'
p4315
g20
sS'screw'
p4316
g20
sS'bastard'
p4317
g20
sS'documents'
p4318
g7
sS'angle'
p4319
g20
sS'russians'
p4320
g20
sS'min'
p4321
g7
sS'studying'
p4322
g7
sS'forgotten'
p4323
g7
sS'agency'
p4324
g20
sS'able'
p4325
g20
sS'mid'
p4326
g7
sS'incentive'
p4327
g20
sS'contact'
p4328
g20
sS'instance'
p4329
g20
sS'relatives'
p4330
g7
sS'concerns'
p4331
g7
sS'which'
p4332
g20
sS'funds'
p4333
g7
sS'truck'
p4334
g7
sS'asshole'
p4335
g20
sS'brand'
p4336
g7
sS'usage'
p4337
g7
sS'unless'
p4338
g20
sS'agenda'
p4339
g20
sS'combat'
p4340
g7
sS'who'
p4341
g20
sS'mandatory'
p4342
g7
sS'harmful'
p4343
g20
sS'intentions'
p4344
g20
sS'eight'
p4345
g20
sS'amongst'
p4346
g20
sS'definitions'
p4347
g7
sS'device'
p4348
g7
sS'friend'
p4349
g7
sS'future'
p4350
g20
sS'why'
p4351
g20
sS'statute'
p4352
g20
sS'deny'
p4353
g20
sS'consequences'
p4354
g20
sS'reminds'
p4355
g7
sS'wish'
p4356
g7
sS'gather'
p4357
g7
sS'stronger'
p4358
g20
sS'disease'
p4359
g20
sS'face'
p4360
g7
sS'pipe'
p4361
g20
sS'capita'
p4362
g20
sS'hi'
p4363
g7
sS'absurd'
p4364
g20
sS'handing'
p4365
g7
sS'movie'
p4366
g7
sS'innocent'
p4367
g20
sS'normally'
p4368
g20
sS'wow'
p4369
g7
sS'fact'
p4370
g20
sS'goals'
p4371
g20
sS'son'
p4372
g7
sS'impression'
p4373
g7
sS'selection'
p4374
g7
sS'achieve'
p4375
g7
sS'answered'
p4376
g7
sS'cute'
p4377
g7
sS'violation'
p4378
g20
sS'text'
p4379
g7
sS'agreed'
p4380
g7
sS'supported'
p4381
g20
sS'assholes'
p4382
g20
sS'anyway'
p4383
g20
sS'brother'
p4384
g7
sS'bring'
p4385
g20
sS'planning'
p4386
g7
sS'democrats'
p4387
g20
sS'reaching'
p4388
g7
sS'bedroom'
p4389
g7
sS'utter'
p4390
g20
sS'rough'
p4391
g20
sS'trivial'
p4392
g20
sS'agrees'
p4393
g20
sS'decade'
p4394
g20
sS'principal'
p4395
g7
sS'exercise'
p4396
g20
sS'communism'
p4397
g20
sS'based'
p4398
g20
sS'knowledge'
p4399
g7
sS'sheriff'
p4400
g7
sS'earned'
p4401
g7
sS'upvote'
p4402
g7
sS'fans'
p4403
g7
sS'controls'
p4404
g20
sS'should'
p4405
g20
sS'entities'
p4406
g20
sS'score'
p4407
g7
sS'candidates'
p4408
g20
sS'fuel'
p4409
g7
sS'riding'
p4410
g7
sS'communist'
p4411
g20
sg5
g7
sS'thousands'
p4412
g20
sS'interested'
p4413
g7
sS'hope'
p4414
g20
sS'regularly'
p4415
g20
sS'prosecute'
p4416
g20
sS'sued'
p4417
g20
sS'handle'
p4418
g20
sS'means'
p4419
g20
sS'beat'
p4420
g7
sS'familiar'
p4421
g20
sS'michigan'
p4422
g7
sS'overall'
p4423
g20
sS'hire'
p4424
g7
sS'prohibition'
p4425
g20
sS'joint'
p4426
g20
sS'community'
p4427
g7
sS'ones'
p4428
g20
sS'sales'
p4429
g7
sS'legitimate'
p4430
g20
sS'words'
p4431
g7
sS'wise'
p4432
g7
sS'years'
p4433
g7
sS'handgun'
p4434
g7
sS'japan'
p4435
g7
sS'areas'
p4436
g20
sS'campus'
p4437
g7
sS'following'
p4438
g7
sS'evolution'
p4439
g20
sS'tobacco'
p4440
g20
sS'course'
p4441
g20
sS'shopping'
p4442
g7
sS'conditions'
p4443
g20
sS'quarantine'
p4444
g7
sS'monopoly'
p4445
g7
sS'taxes'
p4446
g7
sS'calling'
p4447
g20
sS'extremists'
p4448
g20
sS'stuff'
p4449
g20
sS'dallas'
p4450
g7
sS'contain'
p4451
g20
sS'taxed'
p4452
g20
sS'grab'
p4453
g7
sS'fixed'
p4454
g7
sS'generations'
p4455
g20
sS'view'
p4456
g20
sS'europe'
p4457
g20
sS'requirement'
p4458
g20
sS'exists'
p4459
g20
sS'frame'
p4460
g7
sS'shake'
p4461
g7
sS'humans'
p4462
g20
sS'reddit'
p4463
g7
sS'immigrant'
p4464
g20
sS'mentioned'
p4465
g7
sS'accused'
p4466
g20
sS'desperate'
p4467
g20
sS'omg'
p4468
g7
sS'battery'
p4469
g20
sS'creating'
p4470
g20
sS'closer'
p4471
g20
sS'interview'
p4472
g7
sS'stats'
p4473
g20
sS'nationwide'
p4474
g7
sS'insulting'
p4475
g20
sS'attempting'
p4476
g20
sS'pattern'
p4477
g20
sS'nightmare'
p4478
g20
sS'horribly'
p4479
g20
sS'below'
p4480
g20
sS'tend'
p4481
g20
sS'favor'
p4482
g20
sS'state'
p4483
g20
sS'injustice'
p4484
g20
sS'correctly'
p4485
g7
sS'routine'
p4486
g20
sS'tens'
p4487
g20
sS'limit'
p4488
g20
sS'neither'
p4489
g20
sS'pistol'
p4490
g7
sS'email'
p4491
g7
sS'pants'
p4492
g7
sS'industries'
p4493
g7
sS'ends'
p4494
g20
sS'sole'
p4495
g7
sS'ability'
p4496
g20
sS'opening'
p4497
g7
sS'importance'
p4498
g7
sS'deliver'
p4499
g7
sS'agencies'
p4500
g20
sS'ignorance'
p4501
g20
sS'kicking'
p4502
g7
sS'job'
p4503
g7
sS'joe'
p4504
g7
sS'key'
p4505
g7
sS'group'
p4506
g20
sS'lawsuit'
p4507
g20
sS'distribution'
p4508
g7
sS'legit'
p4509
g20
sS'david'
p4510
g7
sS'redditors'
p4511
g20
sS'restrictions'
p4512
g20
sS'hits'
p4513
g20
sS'empathy'
p4514
g20
sS'instant'
p4515
g7
sS'limits'
p4516
g20
sS'career'
p4517
g7
sS'freely'
p4518
g20
sS'taking'
p4519
g20
sS'equal'
p4520
g20
sS'drug'
p4521
g20
sS'beliefs'
p4522
g20
sS'assure'
p4523
g20
sS'admit'
p4524
g20
sS'busted'
p4525
g20
sS'figures'
p4526
g20
sS'expand'
p4527
g7
sS'passing'
p4528
g20
sS'safely'
p4529
g20
sS'masses'
p4530
g20
sS'jersey'
p4531
g7
sS'grounds'
p4532
g20
sS'comment'
p4533
g7
sS'jim'
p4534
g20
sS'co'
p4535
g7
sS'censorship'
p4536
g20
sS'agents'
p4537
g20
sS'gone'
p4538
g20
sS'wall'
p4539
g7
sS'ca'
p4540
g20
sS'irish'
p4541
g7
sS'walk'
p4542
g7
sS'laugh'
p4543
g7
sS'cousin'
p4544
g7
sS'respect'
p4545
g20
sS'labor'
p4546
g7
sS'ignoring'
p4547
g7
sS'earning'
p4548
g7
sS'ad'
p4549
g7
sS'quit'
p4550
g7
sS'protective'
p4551
g7
sS'yay'
p4552
g7
sS'pin'
p4553
g7
sS'platform'
p4554
g7
sS'addition'
p4555
g20
sS'discrimination'
p4556
g20
sS'holidays'
p4557
g7
sS'apologize'
p4558
g7
sS'ai'
p4559
g7
sS'liberals'
p4560
g20
sS'willing'
p4561
g20
sS'slowly'
p4562
g20
sS'treat'
p4563
g20
sS'looting'
p4564
g20
sS'ship'
p4565
g7
sS'freak'
p4566
g20
sS'waste'
p4567
g20
sS'louisiana'
p4568
g7
sS'killed'
p4569
g7
sS'define'
p4570
g7
sS'wtf'
p4571
g7
sS'suggested'
p4572
g7
sS'mike'
p4573
g7
sS'homosexual'
p4574
g20
sS'controlled'
p4575
g20
sS'verizon'
p4576
g7
sS'received'
p4577
g7
sS'rioting'
p4578
g20
sS'sufficient'
p4579
g7
sS'releasing'
p4580
g7
sS'bans'
p4581
g20
sS'essentially'
p4582
g20
sS'intelligent'
p4583
g7
sS'crappy'
p4584
g20
sS'bulk'
p4585
g7
sS'hmm'
p4586
g7
sS'finished'
p4587
g7
sS'resort'
p4588
g7
sS'hateful'
p4589
g20
sS'suspension'
p4590
g20
sS'smoking'
p4591
g20
sS'fellow'
p4592
g7
sS'present'
p4593
g7
sS'volunteer'
p4594
g7
sS'homes'
p4595
g7
sS'factual'
p4596
g7
sS'unlike'
p4597
g7
sS'plain'
p4598
g20
sS'harder'
p4599
g20
sS'divorce'
p4600
g7
sS'value'
p4601
g7
sS'choices'
p4602
g20
sS'will'
p4603
g20
sS'paul'
p4604
g7
sS'petition'
p4605
g7
sS'owns'
p4606
g20
sS'wild'
p4607
g7
sS'balance'
p4608
g7
sS'instantly'
p4609
g20
sS'frustrating'
p4610
g20
sS'supply'
p4611
g7
sS'va'
p4612
g7
sS'annual'
p4613
g20
sS've'
p4614
g20
sS'almost'
p4615
g20
sS'thus'
p4616
g20
sS'site'
p4617
g7
sS'surface'
p4618
g20
sS'helped'
p4619
g20
sS'savings'
p4620
g7
sS'vs'
p4621
g7
sS'lifetime'
p4622
g20
sS'thug'
p4623
g20
sS'bucks'
p4624
g7
sS'foreign'
p4625
g20
sS'scotus'
p4626
g20
sS'parent'
p4627
g7
sS'capture'
p4628
g20
sS'denial'
p4629
g20
sS'added'
p4630
g7
sS'insight'
p4631
g7
sS'perhaps'
p4632
g20
sS'discipline'
p4633
g7
sS'began'
p4634
g20
sS'civilian'
p4635
g7
sS'administration'
p4636
g20
sS'cross'
p4637
g20
sS'eric'
p4638
g20
sS'serving'
p4639
g7
sS'concealed'
p4640
g7
sS'strange'
p4641
g20
sS'digital'
p4642
g7
sS'largest'
p4643
g20
sS'units'
p4644
g7
sS'party'
p4645
g20
sS'terrorism'
p4646
g20
sS'gets'
p4647
g20
sS'microsoft'
p4648
g7
sS'difficult'
p4649
g20
sS'injured'
p4650
g20
sS'responses'
p4651
g7
sS'credibility'
p4652
g7
sS'slave'
p4653
g20
sS'context'
p4654
g7
sS'emotionally'
p4655
g20
sS'selfish'
p4656
g20
sS'drink'
p4657
g20
sS'disagree'
p4658
g7
sS'effect'
p4659
g20
sS'fucker'
p4660
g20
sS'bullying'
p4661
g7
sS'sarcastic'
p4662
g7
sS'student'
p4663
g7
sS'distinction'
p4664
g7
sS'fucked'
p4665
g20
sS'frequently'
p4666
g20
sS'judgment'
p4667
g20
sS'lobby'
p4668
g7
sS'identity'
p4669
g20
sS'destruction'
p4670
g20
sS'retard'
p4671
g20
sS'expense'
p4672
g7
sS'off'
p4673
g20
sS'raping'
p4674
g20
sS'fully'
p4675
g7
sS'ama'
p4676
g7
sS'approve'
p4677
g20
sS'weapon'
p4678
g7
sS'incredible'
p4679
g7
sS'well'
p4680
g20
sS'fighting'
p4681
g20
sS'thought'
p4682
g20
sS'drone'
p4683
g20
sS'command'
p4684
g7
sS'trials'
p4685
g20
sS'position'
p4686
g20
sS'audio'
p4687
g7
sS'drawing'
p4688
g7
sS'usual'
p4689
g20
sS'routinely'
p4690
g20
sS'negligence'
p4691
g20
sS'rocket'
p4692
g7
sS'heavily'
p4693
g20
sS'increasingly'
p4694
g20
sS'offensive'
p4695
g20
sS'downvotes'
p4696
g7
sS'executive'
p4697
g20
sS'domestic'
p4698
g20
sS'presumably'
p4699
g7
sS'mistaken'
p4700
g7
sS'dose'
p4701
g20
sS'sources'
p4702
g7
sS'underlying'
p4703
g20
sS'books'
p4704
g7
sS'rooms'
p4705
g7
sS'seats'
p4706
g7
sS'protecting'
p4707
g20
sS'skill'
p4708
g7
sS'detain'
p4709
g20
sS'recommend'
p4710
g7
sS'downvoted'
p4711
g7
sS'rescue'
p4712
g7
sS'taken'
p4713
g20
sS'web'
p4714
g7
sS'ads'
p4715
g7
sS'tight'
p4716
g7
sS'residential'
p4717
g7
sS'point'
p4718
g20
sS'demographic'
p4719
g20
sS'lake'
p4720
g7
sS'upvoted'
p4721
g7
sS'discuss'
p4722
g20
sS'arresting'
p4723
g20
sS'arrest'
p4724
g20
sS'add'
p4725
g7
sS'book'
p4726
g7
sS'attractive'
p4727
g7
sS'crack'
p4728
g20
sS'twitter'
p4729
g7
sS'upvotes'
p4730
g7
sS'smart'
p4731
g7
sS'warrant'
p4732
g20
sS'loan'
p4733
g7
sS'ought'
p4734
g20
sS'details'
p4735
g20
sS'identical'
p4736
g20
sS'tests'
p4737
g20
sS'advertising'
p4738
g7
sS'increased'
p4739
g20
sS'myth'
p4740
g20
sS'government'
p4741
g20
sS'checking'
p4742
g7
sS'fyi'
p4743
g7
sS'utah'
p4744
g20
sS'protesters'
p4745
g7
sS'increases'
p4746
g20
sS'five'
p4747
g20
sS'know'
p4748
g20
sS'burden'
p4749
g20
sS'desk'
p4750
g7
sS'press'
p4751
g7
sS'immediately'
p4752
g20
sS'review'
p4753
g7
sS'loss'
p4754
g20
sS'racists'
p4755
g20
sS'trash'
p4756
g20
sS'necessary'
p4757
g20
sS'helpful'
p4758
g7
sS'car'
p4759
g20
sS'liquor'
p4760
g7
sS'bigotry'
p4761
g20
sS'journalism'
p4762
g7
sS'admitted'
p4763
g20
sS'loses'
p4764
g20
sS'lose'
p4765
g20
sS'4chan'
p4766
g7
sS'payments'
p4767
g7
sS'warned'
p4768
g20
sS'become'
p4769
g20
sS'works'
p4770
g20
sS'soft'
p4771
g7
sS'e'
p4772
g7
sS'replacement'
p4773
g7
sS'amendment'
p4774
g20
sS'poor'
p4775
g7
sS'because'
p4776
g20
sS'caring'
p4777
g7
sS'scared'
p4778
g20
sS'church'
p4779
g7
sS'searching'
p4780
g20
sS'authority'
p4781
g20
sS'motive'
p4782
g20
sS'growth'
p4783
g7
sS'choosing'
p4784
g20
sS'proper'
p4785
g7
sS'home'
p4786
g7
sS'employment'
p4787
g7
sS'transport'
p4788
g7
sS'happens'
p4789
g20
sS'focused'
p4790
g7
sS'nuclear'
p4791
g7
sS'lead'
p4792
g20
sS'literally'
p4793
g20
sS'avoid'
p4794
g20
sS'paying'
p4795
g7
sS'salaries'
p4796
g7
sS'shelter'
p4797
g7
sS'does'
p4798
g20
sS'discretion'
p4799
g20
sS'assuming'
p4800
g7
sS'screwed'
p4801
g20
sS'da'
p4802
g7
sS'leader'
p4803
g7
sS'demonstrated'
p4804
g20
sS'mode'
p4805
g7
sS'limitations'
p4806
g20
sS'conference'
p4807
g7
sS'pepper'
p4808
g7
sS'blowing'
p4809
g20
sS'murderer'
p4810
g20
sS'obey'
p4811
g20
sS'decline'
p4812
g20
sS'gps'
p4813
g7
sS'outlets'
p4814
g7
sS'paper'
p4815
g7
sS'pressure'
p4816
g20
sS'murdered'
p4817
g7
sS'prohibited'
p4818
g20
sS'using'
p4819
g7
sS'although'
p4820
g20
sS'worthy'
p4821
g20
sS'choked'
p4822
g20
sS'r'
p4823
g7
sS'loans'
p4824
g7
sS'television'
p4825
g7
sS'hiding'
p4826
g7
sS'gained'
p4827
g7
sS'sister'
p4828
g7
sS'rare'
p4829
g20
sS'puts'
p4830
g20
sS'getting'
p4831
g20
sS'universe'
p4832
g20
sS'shoes'
p4833
g7
sS'location'
p4834
g7
sS'recognized'
p4835
g20
sS'carries'
p4836
g20
sS'statement'
p4837
g7
sS'introduced'
p4838
g20
sS'documentary'
p4839
g7
sS'software'
p4840
g7
sS'equally'
p4841
g20
sS'own'
p4842
g20
sS'letters'
p4843
g7
sS'ceos'
p4844
g7
sS'libertarians'
p4845
g20
sS'keeps'
p4846
g20
sS'previously'
p4847
g20
sS'pussy'
p4848
g20
sS'warrants'
p4849
g20
sS'washington'
p4850
g20
sS'cleared'
p4851
g20
sS'guard'
p4852
g7
sS'doesnt'
p4853
g20
sS'promise'
p4854
g7
sS'tiny'
p4855
g20
sS'female'
p4856
g20
sS'lawful'
p4857
g20
sS'kinda'
p4858
g7
sS'capable'
p4859
g7
sS'strategy'
p4860
g7
sS'pointless'
p4861
g20
sS'mere'
p4862
g20
sS'fired'
p4863
g20
sS'fuck'
p4864
g7
sS'behind'
p4865
g7
sS'additional'
p4866
g7
sS'whom'
p4867
g7
sS'transfer'
p4868
g7
sS'housing'
p4869
g7
sS'populated'
p4870
g20
sS'secret'
p4871
g20
sS'noticed'
p4872
g20
sS'intention'
p4873
g20
sS'board'
p4874
g7
sS'trigger'
p4875
g7
sS'inner'
p4876
g20
sS'biggest'
p4877
g20
sS'naturally'
p4878
g20
sS'function'
p4879
g20
sS'stopping'
p4880
g7
sS'buy'
p4881
g7
sS'north'
p4882
g7
sS'maintenance'
p4883
g7
sS'aircraft'
p4884
g7
sS'bus'
p4885
g7
sS'coke'
p4886
g20
sS'extended'
p4887
g7
sS'blaming'
p4888
g20
sS'subjective'
p4889
g20
sS'expected'
p4890
g20
sS'repeated'
p4891
g20
sS'construction'
p4892
g7
sS'gain'
p4893
g20
sS'courts'
p4894
g20
sS'wage'
p4895
g7
sS'highest'
p4896
g20
sS'anonymous'
p4897
g7
sS'eat'
p4898
g7
sS'bud'
p4899
g7
sS'partially'
p4900
g20
sS'count'
p4901
g7
sS'territory'
p4902
g20
sS'tactics'
p4903
g7
sS'places'
p4904
g20
sS'comfort'
p4905
g7
sS'whether'
p4906
g20
sS'dangerous'
p4907
g20
sS'cells'
p4908
g20
sS'official'
p4909
g7
sS'flip'
p4910
g20
sS'signed'
p4911
g7
sS'placed'
p4912
g7
sS'cruel'
p4913
g20
sS'convince'
p4914
g20
sS'stories'
p4915
g20
sS'ruling'
p4916
g20
sS'hand'
p4917
g7
sS'invest'
p4918
g7
sS'cake'
p4919
g7
sS'demonstrate'
p4920
g20
sS'problem'
p4921
g20
sS'piece'
p4922
g20
sS'minutes'
p4923
g7
sS'display'
p4924
g7
sS'ex'
p4925
g7
sS'bearing'
p4926
g20
sS'supreme'
p4927
g20
sS'replying'
p4928
g7
sS'iphone'
p4929
g7
sS'horrific'
p4930
g20
sS'deaths'
p4931
g20
sS'nurses'
p4932
g7
sS'recognize'
p4933
g20
sS'universal'
p4934
g7
sS'contribute'
p4935
g20
sS'meaningless'
p4936
g20
sS'pig'
p4937
g20
sS'twist'
p4938
g7
sS'lived'
p4939
g7
sS'implement'
p4940
g7
sS'periods'
p4941
g7
sS'shooting'
p4942
g20
sS'pit'
p4943
g7
sS'autism'
p4944
g20
sS'functions'
p4945
g20
sS'compared'
p4946
g20
sS'variety'
p4947
g20
sS'deadly'
p4948
g20
sS'45'
p4949
g20
sS'claiming'
p4950
g20
sS'detail'
p4951
g20
sS'40'
p4952
g20
sS'lately'
p4953
g20
sS'other'
p4954
g20
sS'guarantee'
p4955
g20
sS'witness'
p4956
g20
sS'branch'
p4957
g20
sS'u'
p4958
g7
sS'incredibly'
p4959
g20
sS'reckless'
p4960
g20
sS'conclusion'
p4961
g7
sS'troll'
p4962
g7
sS'illegally'
p4963
g20
sS'repeat'
p4964
g20
sS'kinds'
p4965
g20
sS'respected'
p4966
g7
sS'monday'
p4967
g7
sS'oppression'
p4968
g20
sS'shown'
p4969
g20
sS'inherently'
p4970
g20
sS'insults'
p4971
g7
sS'chance'
p4972
g20
sS'stab'
p4973
g7
sS'additionally'
p4974
g20
sS'rural'
p4975
g7
sS'jackson'
p4976
g7
sS'basement'
p4977
g7
sS'gap'
p4978
g20
sS'friends'
p4979
g7
sS'christians'
p4980
g7
sS'exposure'
p4981
g20
sS'searches'
p4982
g20
sS'kidding'
p4983
g7
sS'prevalent'
p4984
g20
sS'ambulance'
p4985
g7
sS'atheist'
p4986
g7
sS'space'
p4987
g7
sS'rule'
p4988
g20
sS'intentionally'
p4989
g20
sS'portion'
p4990
g20
sS'write'
p4991
g7
sS'compete'
p4992
g7
sS'pension'
p4993
g7
sS'searched'
p4994
g20
sS'uneducated'
p4995
g20
sS'lives'
p4996
g20
sS'yell'
p4997
g7
sS'accidents'
p4998
g20
sS'oklahoma'
p4999
g7
sS'forgot'
p5000
g7
s.